ARM GAS  C:\Users\andywei\AppData\Local\Temp\ccCe1C2z.s 			page 1


   1              		.cpu cortex-m4
   2              		.eabi_attribute 27, 1
   3              		.eabi_attribute 28, 1
   4              		.eabi_attribute 20, 1
   5              		.eabi_attribute 21, 1
   6              		.eabi_attribute 23, 3
   7              		.eabi_attribute 24, 1
   8              		.eabi_attribute 25, 1
   9              		.eabi_attribute 26, 1
  10              		.eabi_attribute 30, 1
  11              		.eabi_attribute 34, 1
  12              		.eabi_attribute 18, 4
  13              		.file	"radio.c"
  14              		.text
  15              	.Ltext0:
  16              		.cfi_sections	.debug_frame
  17              		.section	.text.RadioGetFskBandwidthRegValue,"ax",%progbits
  18              		.align	1
  19              		.arch armv7e-m
  20              		.syntax unified
  21              		.thumb
  22              		.thumb_func
  23              		.fpu fpv4-sp-d16
  25              	RadioGetFskBandwidthRegValue:
  26              	.LVL0:
  27              	.LFB0:
  28              		.file 1 "Drivers/sx126x/radio/sx126x/radio.c"
   1:Drivers/sx126x/radio/sx126x/radio.c **** /*!
   2:Drivers/sx126x/radio/sx126x/radio.c ****  * \file      radio.c
   3:Drivers/sx126x/radio/sx126x/radio.c ****  *
   4:Drivers/sx126x/radio/sx126x/radio.c ****  * \brief     Radio driver API definition
   5:Drivers/sx126x/radio/sx126x/radio.c ****  *
   6:Drivers/sx126x/radio/sx126x/radio.c ****  * \copyright Revised BSD License, see section \ref LICENSE.
   7:Drivers/sx126x/radio/sx126x/radio.c ****  *
   8:Drivers/sx126x/radio/sx126x/radio.c ****  * \code
   9:Drivers/sx126x/radio/sx126x/radio.c ****  *                ______                              _
  10:Drivers/sx126x/radio/sx126x/radio.c ****  *               / _____)             _              | |
  11:Drivers/sx126x/radio/sx126x/radio.c ****  *              ( (____  _____ ____ _| |_ _____  ____| |__
  12:Drivers/sx126x/radio/sx126x/radio.c ****  *               \____ \| ___ |    (_   _) ___ |/ ___)  _ \
  13:Drivers/sx126x/radio/sx126x/radio.c ****  *               _____) ) ____| | | || |_| ____( (___| | | |
  14:Drivers/sx126x/radio/sx126x/radio.c ****  *              (______/|_____)_|_|_| \__)_____)\____)_| |_|
  15:Drivers/sx126x/radio/sx126x/radio.c ****  *              (C)2013-2017 Semtech
  16:Drivers/sx126x/radio/sx126x/radio.c ****  *
  17:Drivers/sx126x/radio/sx126x/radio.c ****  * \endcode
  18:Drivers/sx126x/radio/sx126x/radio.c ****  *
  19:Drivers/sx126x/radio/sx126x/radio.c ****  * \author    Miguel Luis ( Semtech )
  20:Drivers/sx126x/radio/sx126x/radio.c ****  *
  21:Drivers/sx126x/radio/sx126x/radio.c ****  * \author    Gregory Cristian ( Semtech )
  22:Drivers/sx126x/radio/sx126x/radio.c ****  */
  23:Drivers/sx126x/radio/sx126x/radio.c **** #include <math.h>
  24:Drivers/sx126x/radio/sx126x/radio.c **** #include <string.h>
  25:Drivers/sx126x/radio/sx126x/radio.c **** #include "utilities.h"
  26:Drivers/sx126x/radio/sx126x/radio.c **** #include "timer.h"
  27:Drivers/sx126x/radio/sx126x/radio.c **** #include "delay.h"
  28:Drivers/sx126x/radio/sx126x/radio.c **** #include "radio.h"
  29:Drivers/sx126x/radio/sx126x/radio.c **** #include "sx126x.h"
  30:Drivers/sx126x/radio/sx126x/radio.c **** #include "sx126x-board.h"
ARM GAS  C:\Users\andywei\AppData\Local\Temp\ccCe1C2z.s 			page 2


  31:Drivers/sx126x/radio/sx126x/radio.c **** #include "board.h"
  32:Drivers/sx126x/radio/sx126x/radio.c **** 
  33:Drivers/sx126x/radio/sx126x/radio.c **** /*!
  34:Drivers/sx126x/radio/sx126x/radio.c ****  * \brief Initializes the radio
  35:Drivers/sx126x/radio/sx126x/radio.c ****  *
  36:Drivers/sx126x/radio/sx126x/radio.c ****  * \param [IN] events Structure containing the driver callback functions
  37:Drivers/sx126x/radio/sx126x/radio.c ****  */
  38:Drivers/sx126x/radio/sx126x/radio.c **** void RadioInit( RadioEvents_t *events );
  39:Drivers/sx126x/radio/sx126x/radio.c **** 
  40:Drivers/sx126x/radio/sx126x/radio.c **** /*!
  41:Drivers/sx126x/radio/sx126x/radio.c ****  * Return current radio status
  42:Drivers/sx126x/radio/sx126x/radio.c ****  *
  43:Drivers/sx126x/radio/sx126x/radio.c ****  * \param status Radio status.[RF_IDLE, RF_RX_RUNNING, RF_TX_RUNNING]
  44:Drivers/sx126x/radio/sx126x/radio.c ****  */
  45:Drivers/sx126x/radio/sx126x/radio.c **** RadioState_t RadioGetStatus( void );
  46:Drivers/sx126x/radio/sx126x/radio.c **** 
  47:Drivers/sx126x/radio/sx126x/radio.c **** /*!
  48:Drivers/sx126x/radio/sx126x/radio.c ****  * \brief Configures the radio with the given modem
  49:Drivers/sx126x/radio/sx126x/radio.c ****  *
  50:Drivers/sx126x/radio/sx126x/radio.c ****  * \param [IN] modem Modem to be used [0: FSK, 1: LoRa]
  51:Drivers/sx126x/radio/sx126x/radio.c ****  */
  52:Drivers/sx126x/radio/sx126x/radio.c **** void RadioSetModem( RadioModems_t modem );
  53:Drivers/sx126x/radio/sx126x/radio.c **** 
  54:Drivers/sx126x/radio/sx126x/radio.c **** /*!
  55:Drivers/sx126x/radio/sx126x/radio.c ****  * \brief Sets the channel frequency
  56:Drivers/sx126x/radio/sx126x/radio.c ****  *
  57:Drivers/sx126x/radio/sx126x/radio.c ****  * \param [IN] freq         Channel RF frequency
  58:Drivers/sx126x/radio/sx126x/radio.c ****  */
  59:Drivers/sx126x/radio/sx126x/radio.c **** void RadioSetChannel( uint32_t freq );
  60:Drivers/sx126x/radio/sx126x/radio.c **** 
  61:Drivers/sx126x/radio/sx126x/radio.c **** /*!
  62:Drivers/sx126x/radio/sx126x/radio.c ****  * \brief Checks if the channel is free for the given time
  63:Drivers/sx126x/radio/sx126x/radio.c ****  *
  64:Drivers/sx126x/radio/sx126x/radio.c ****  * \remark The FSK modem is always used for this task as we can select the Rx bandwidth at will.
  65:Drivers/sx126x/radio/sx126x/radio.c ****  *
  66:Drivers/sx126x/radio/sx126x/radio.c ****  * \param [IN] freq                Channel RF frequency in Hertz
  67:Drivers/sx126x/radio/sx126x/radio.c ****  * \param [IN] rxBandwidth         Rx bandwidth in Hertz
  68:Drivers/sx126x/radio/sx126x/radio.c ****  * \param [IN] rssiThresh          RSSI threshold in dBm
  69:Drivers/sx126x/radio/sx126x/radio.c ****  * \param [IN] maxCarrierSenseTime Max time in milliseconds while the RSSI is measured
  70:Drivers/sx126x/radio/sx126x/radio.c ****  *
  71:Drivers/sx126x/radio/sx126x/radio.c ****  * \retval isFree         [true: Channel is free, false: Channel is not free]
  72:Drivers/sx126x/radio/sx126x/radio.c ****  */
  73:Drivers/sx126x/radio/sx126x/radio.c **** bool RadioIsChannelFree( uint32_t freq, uint32_t rxBandwidth, int16_t rssiThresh, uint32_t maxCarri
  74:Drivers/sx126x/radio/sx126x/radio.c **** 
  75:Drivers/sx126x/radio/sx126x/radio.c **** /*!
  76:Drivers/sx126x/radio/sx126x/radio.c ****  * \brief Generates a 32 bits random value based on the RSSI readings
  77:Drivers/sx126x/radio/sx126x/radio.c ****  *
  78:Drivers/sx126x/radio/sx126x/radio.c ****  * \remark This function sets the radio in LoRa modem mode and disables
  79:Drivers/sx126x/radio/sx126x/radio.c ****  *         all interrupts.
  80:Drivers/sx126x/radio/sx126x/radio.c ****  *         After calling this function either Radio.SetRxConfig or
  81:Drivers/sx126x/radio/sx126x/radio.c ****  *         Radio.SetTxConfig functions must be called.
  82:Drivers/sx126x/radio/sx126x/radio.c ****  *
  83:Drivers/sx126x/radio/sx126x/radio.c ****  * \retval randomValue    32 bits random value
  84:Drivers/sx126x/radio/sx126x/radio.c ****  */
  85:Drivers/sx126x/radio/sx126x/radio.c **** uint32_t RadioRandom( void );
  86:Drivers/sx126x/radio/sx126x/radio.c **** 
  87:Drivers/sx126x/radio/sx126x/radio.c **** /*!
ARM GAS  C:\Users\andywei\AppData\Local\Temp\ccCe1C2z.s 			page 3


  88:Drivers/sx126x/radio/sx126x/radio.c ****  * \brief Sets the reception parameters
  89:Drivers/sx126x/radio/sx126x/radio.c ****  *
  90:Drivers/sx126x/radio/sx126x/radio.c ****  * \param [IN] modem        Radio modem to be used [0: FSK, 1: LoRa]
  91:Drivers/sx126x/radio/sx126x/radio.c ****  * \param [IN] bandwidth    Sets the bandwidth
  92:Drivers/sx126x/radio/sx126x/radio.c ****  *                          FSK : >= 2600 and <= 250000 Hz
  93:Drivers/sx126x/radio/sx126x/radio.c ****  *                          LoRa: [0: 125 kHz, 1: 250 kHz,
  94:Drivers/sx126x/radio/sx126x/radio.c ****  *                                 2: 500 kHz, 3: Reserved]
  95:Drivers/sx126x/radio/sx126x/radio.c ****  * \param [IN] datarate     Sets the Datarate
  96:Drivers/sx126x/radio/sx126x/radio.c ****  *                          FSK : 600..300000 bits/s
  97:Drivers/sx126x/radio/sx126x/radio.c ****  *                          LoRa: [6: 64, 7: 128, 8: 256, 9: 512,
  98:Drivers/sx126x/radio/sx126x/radio.c ****  *                                10: 1024, 11: 2048, 12: 4096  chips]
  99:Drivers/sx126x/radio/sx126x/radio.c ****  * \param [IN] coderate     Sets the coding rate (LoRa only)
 100:Drivers/sx126x/radio/sx126x/radio.c ****  *                          FSK : N/A ( set to 0 )
 101:Drivers/sx126x/radio/sx126x/radio.c ****  *                          LoRa: [1: 4/5, 2: 4/6, 3: 4/7, 4: 4/8]
 102:Drivers/sx126x/radio/sx126x/radio.c ****  * \param [IN] bandwidthAfc Sets the AFC Bandwidth (FSK only)
 103:Drivers/sx126x/radio/sx126x/radio.c ****  *                          FSK : >= 2600 and <= 250000 Hz
 104:Drivers/sx126x/radio/sx126x/radio.c ****  *                          LoRa: N/A ( set to 0 )
 105:Drivers/sx126x/radio/sx126x/radio.c ****  * \param [IN] preambleLen  Sets the Preamble length
 106:Drivers/sx126x/radio/sx126x/radio.c ****  *                          FSK : Number of bytes
 107:Drivers/sx126x/radio/sx126x/radio.c ****  *                          LoRa: Length in symbols (the hardware adds 4 more symbols)
 108:Drivers/sx126x/radio/sx126x/radio.c ****  * \param [IN] symbTimeout  Sets the RxSingle timeout value
 109:Drivers/sx126x/radio/sx126x/radio.c ****  *                          FSK : timeout in number of bytes
 110:Drivers/sx126x/radio/sx126x/radio.c ****  *                          LoRa: timeout in symbols
 111:Drivers/sx126x/radio/sx126x/radio.c ****  * \param [IN] fixLen       Fixed length packets [0: variable, 1: fixed]
 112:Drivers/sx126x/radio/sx126x/radio.c ****  * \param [IN] payloadLen   Sets payload length when fixed length is used
 113:Drivers/sx126x/radio/sx126x/radio.c ****  * \param [IN] crcOn        Enables/Disables the CRC [0: OFF, 1: ON]
 114:Drivers/sx126x/radio/sx126x/radio.c ****  * \param [IN] FreqHopOn    Enables disables the intra-packet frequency hopping
 115:Drivers/sx126x/radio/sx126x/radio.c ****  *                          FSK : N/A ( set to 0 )
 116:Drivers/sx126x/radio/sx126x/radio.c ****  *                          LoRa: [0: OFF, 1: ON]
 117:Drivers/sx126x/radio/sx126x/radio.c ****  * \param [IN] HopPeriod    Number of symbols between each hop
 118:Drivers/sx126x/radio/sx126x/radio.c ****  *                          FSK : N/A ( set to 0 )
 119:Drivers/sx126x/radio/sx126x/radio.c ****  *                          LoRa: Number of symbols
 120:Drivers/sx126x/radio/sx126x/radio.c ****  * \param [IN] iqInverted   Inverts IQ signals (LoRa only)
 121:Drivers/sx126x/radio/sx126x/radio.c ****  *                          FSK : N/A ( set to 0 )
 122:Drivers/sx126x/radio/sx126x/radio.c ****  *                          LoRa: [0: not inverted, 1: inverted]
 123:Drivers/sx126x/radio/sx126x/radio.c ****  * \param [IN] rxContinuous Sets the reception in continuous mode
 124:Drivers/sx126x/radio/sx126x/radio.c ****  *                          [false: single mode, true: continuous mode]
 125:Drivers/sx126x/radio/sx126x/radio.c ****  */
 126:Drivers/sx126x/radio/sx126x/radio.c **** void RadioSetRxConfig( RadioModems_t modem, uint32_t bandwidth,
 127:Drivers/sx126x/radio/sx126x/radio.c ****                           uint32_t datarate, uint8_t coderate,
 128:Drivers/sx126x/radio/sx126x/radio.c ****                           uint32_t bandwidthAfc, uint16_t preambleLen,
 129:Drivers/sx126x/radio/sx126x/radio.c ****                           uint16_t symbTimeout, bool fixLen,
 130:Drivers/sx126x/radio/sx126x/radio.c ****                           uint8_t payloadLen,
 131:Drivers/sx126x/radio/sx126x/radio.c ****                           bool crcOn, bool FreqHopOn, uint8_t HopPeriod,
 132:Drivers/sx126x/radio/sx126x/radio.c ****                           bool iqInverted, bool rxContinuous );
 133:Drivers/sx126x/radio/sx126x/radio.c **** 
 134:Drivers/sx126x/radio/sx126x/radio.c **** /*!
 135:Drivers/sx126x/radio/sx126x/radio.c ****  * \brief Sets the transmission parameters
 136:Drivers/sx126x/radio/sx126x/radio.c ****  *
 137:Drivers/sx126x/radio/sx126x/radio.c ****  * \param [IN] modem        Radio modem to be used [0: FSK, 1: LoRa]
 138:Drivers/sx126x/radio/sx126x/radio.c ****  * \param [IN] power        Sets the output power [dBm]
 139:Drivers/sx126x/radio/sx126x/radio.c ****  * \param [IN] fdev         Sets the frequency deviation (FSK only)
 140:Drivers/sx126x/radio/sx126x/radio.c ****  *                          FSK : [Hz]
 141:Drivers/sx126x/radio/sx126x/radio.c ****  *                          LoRa: 0
 142:Drivers/sx126x/radio/sx126x/radio.c ****  * \param [IN] bandwidth    Sets the bandwidth (LoRa only)
 143:Drivers/sx126x/radio/sx126x/radio.c ****  *                          FSK : 0
 144:Drivers/sx126x/radio/sx126x/radio.c ****  *                          LoRa: [0: 125 kHz, 1: 250 kHz,
ARM GAS  C:\Users\andywei\AppData\Local\Temp\ccCe1C2z.s 			page 4


 145:Drivers/sx126x/radio/sx126x/radio.c ****  *                                 2: 500 kHz, 3: Reserved]
 146:Drivers/sx126x/radio/sx126x/radio.c ****  * \param [IN] datarate     Sets the Datarate
 147:Drivers/sx126x/radio/sx126x/radio.c ****  *                          FSK : 600..300000 bits/s
 148:Drivers/sx126x/radio/sx126x/radio.c ****  *                          LoRa: [6: 64, 7: 128, 8: 256, 9: 512,
 149:Drivers/sx126x/radio/sx126x/radio.c ****  *                                10: 1024, 11: 2048, 12: 4096  chips]
 150:Drivers/sx126x/radio/sx126x/radio.c ****  * \param [IN] coderate     Sets the coding rate (LoRa only)
 151:Drivers/sx126x/radio/sx126x/radio.c ****  *                          FSK : N/A ( set to 0 )
 152:Drivers/sx126x/radio/sx126x/radio.c ****  *                          LoRa: [1: 4/5, 2: 4/6, 3: 4/7, 4: 4/8]
 153:Drivers/sx126x/radio/sx126x/radio.c ****  * \param [IN] preambleLen  Sets the preamble length
 154:Drivers/sx126x/radio/sx126x/radio.c ****  *                          FSK : Number of bytes
 155:Drivers/sx126x/radio/sx126x/radio.c ****  *                          LoRa: Length in symbols (the hardware adds 4 more symbols)
 156:Drivers/sx126x/radio/sx126x/radio.c ****  * \param [IN] fixLen       Fixed length packets [0: variable, 1: fixed]
 157:Drivers/sx126x/radio/sx126x/radio.c ****  * \param [IN] crcOn        Enables disables the CRC [0: OFF, 1: ON]
 158:Drivers/sx126x/radio/sx126x/radio.c ****  * \param [IN] FreqHopOn    Enables disables the intra-packet frequency hopping
 159:Drivers/sx126x/radio/sx126x/radio.c ****  *                          FSK : N/A ( set to 0 )
 160:Drivers/sx126x/radio/sx126x/radio.c ****  *                          LoRa: [0: OFF, 1: ON]
 161:Drivers/sx126x/radio/sx126x/radio.c ****  * \param [IN] HopPeriod    Number of symbols between each hop
 162:Drivers/sx126x/radio/sx126x/radio.c ****  *                          FSK : N/A ( set to 0 )
 163:Drivers/sx126x/radio/sx126x/radio.c ****  *                          LoRa: Number of symbols
 164:Drivers/sx126x/radio/sx126x/radio.c ****  * \param [IN] iqInverted   Inverts IQ signals (LoRa only)
 165:Drivers/sx126x/radio/sx126x/radio.c ****  *                          FSK : N/A ( set to 0 )
 166:Drivers/sx126x/radio/sx126x/radio.c ****  *                          LoRa: [0: not inverted, 1: inverted]
 167:Drivers/sx126x/radio/sx126x/radio.c ****  * \param [IN] timeout      Transmission timeout [ms]
 168:Drivers/sx126x/radio/sx126x/radio.c ****  */
 169:Drivers/sx126x/radio/sx126x/radio.c **** void RadioSetTxConfig( RadioModems_t modem, int8_t power, uint32_t fdev,
 170:Drivers/sx126x/radio/sx126x/radio.c ****                           uint32_t bandwidth, uint32_t datarate,
 171:Drivers/sx126x/radio/sx126x/radio.c ****                           uint8_t coderate, uint16_t preambleLen,
 172:Drivers/sx126x/radio/sx126x/radio.c ****                           bool fixLen, bool crcOn, bool FreqHopOn,
 173:Drivers/sx126x/radio/sx126x/radio.c ****                           uint8_t HopPeriod, bool iqInverted, uint32_t timeout );
 174:Drivers/sx126x/radio/sx126x/radio.c **** 
 175:Drivers/sx126x/radio/sx126x/radio.c **** /*!
 176:Drivers/sx126x/radio/sx126x/radio.c ****  * \brief Checks if the given RF frequency is supported by the hardware
 177:Drivers/sx126x/radio/sx126x/radio.c ****  *
 178:Drivers/sx126x/radio/sx126x/radio.c ****  * \param [IN] frequency RF frequency to be checked
 179:Drivers/sx126x/radio/sx126x/radio.c ****  * \retval isSupported [true: supported, false: unsupported]
 180:Drivers/sx126x/radio/sx126x/radio.c ****  */
 181:Drivers/sx126x/radio/sx126x/radio.c **** bool RadioCheckRfFrequency( uint32_t frequency );
 182:Drivers/sx126x/radio/sx126x/radio.c **** 
 183:Drivers/sx126x/radio/sx126x/radio.c **** /*!
 184:Drivers/sx126x/radio/sx126x/radio.c ****  * \brief Computes the packet time on air in ms for the given payload
 185:Drivers/sx126x/radio/sx126x/radio.c ****  *
 186:Drivers/sx126x/radio/sx126x/radio.c ****  * \Remark Can only be called once SetRxConfig or SetTxConfig have been called
 187:Drivers/sx126x/radio/sx126x/radio.c ****  *
 188:Drivers/sx126x/radio/sx126x/radio.c ****  * \param [IN] modem      Radio modem to be used [0: FSK, 1: LoRa]
 189:Drivers/sx126x/radio/sx126x/radio.c ****  * \param [IN] bandwidth    Sets the bandwidth
 190:Drivers/sx126x/radio/sx126x/radio.c ****  *                          FSK : >= 2600 and <= 250000 Hz
 191:Drivers/sx126x/radio/sx126x/radio.c ****  *                          LoRa: [0: 125 kHz, 1: 250 kHz,
 192:Drivers/sx126x/radio/sx126x/radio.c ****  *                                 2: 500 kHz, 3: Reserved]
 193:Drivers/sx126x/radio/sx126x/radio.c ****  * \param [IN] datarate     Sets the Datarate
 194:Drivers/sx126x/radio/sx126x/radio.c ****  *                          FSK : 600..300000 bits/s
 195:Drivers/sx126x/radio/sx126x/radio.c ****  *                          LoRa: [6: 64, 7: 128, 8: 256, 9: 512,
 196:Drivers/sx126x/radio/sx126x/radio.c ****  *                                10: 1024, 11: 2048, 12: 4096  chips]
 197:Drivers/sx126x/radio/sx126x/radio.c ****  * \param [IN] coderate     Sets the coding rate (LoRa only)
 198:Drivers/sx126x/radio/sx126x/radio.c ****  *                          FSK : N/A ( set to 0 )
 199:Drivers/sx126x/radio/sx126x/radio.c ****  *                          LoRa: [1: 4/5, 2: 4/6, 3: 4/7, 4: 4/8]
 200:Drivers/sx126x/radio/sx126x/radio.c ****  * \param [IN] preambleLen  Sets the Preamble length
 201:Drivers/sx126x/radio/sx126x/radio.c ****  *                          FSK : Number of bytes
ARM GAS  C:\Users\andywei\AppData\Local\Temp\ccCe1C2z.s 			page 5


 202:Drivers/sx126x/radio/sx126x/radio.c ****  *                          LoRa: Length in symbols (the hardware adds 4 more symbols)
 203:Drivers/sx126x/radio/sx126x/radio.c ****  * \param [IN] fixLen       Fixed length packets [0: variable, 1: fixed]
 204:Drivers/sx126x/radio/sx126x/radio.c ****  * \param [IN] payloadLen   Sets payload length when fixed length is used
 205:Drivers/sx126x/radio/sx126x/radio.c ****  * \param [IN] crcOn        Enables/Disables the CRC [0: OFF, 1: ON]
 206:Drivers/sx126x/radio/sx126x/radio.c ****  *
 207:Drivers/sx126x/radio/sx126x/radio.c ****  * \retval airTime        Computed airTime (ms) for the given packet payload length
 208:Drivers/sx126x/radio/sx126x/radio.c ****  */
 209:Drivers/sx126x/radio/sx126x/radio.c **** uint32_t RadioTimeOnAir( RadioModems_t modem, uint32_t bandwidth,
 210:Drivers/sx126x/radio/sx126x/radio.c ****                               uint32_t datarate, uint8_t coderate,
 211:Drivers/sx126x/radio/sx126x/radio.c ****                               uint16_t preambleLen, bool fixLen, uint8_t payloadLen,
 212:Drivers/sx126x/radio/sx126x/radio.c ****                               bool crcOn );
 213:Drivers/sx126x/radio/sx126x/radio.c **** 
 214:Drivers/sx126x/radio/sx126x/radio.c **** /*!
 215:Drivers/sx126x/radio/sx126x/radio.c ****  * \brief Sends the buffer of size. Prepares the packet to be sent and sets
 216:Drivers/sx126x/radio/sx126x/radio.c ****  *        the radio in transmission
 217:Drivers/sx126x/radio/sx126x/radio.c ****  *
 218:Drivers/sx126x/radio/sx126x/radio.c ****  * \param [IN]: buffer     Buffer pointer
 219:Drivers/sx126x/radio/sx126x/radio.c ****  * \param [IN]: size       Buffer size
 220:Drivers/sx126x/radio/sx126x/radio.c ****  */
 221:Drivers/sx126x/radio/sx126x/radio.c **** void RadioSend( uint8_t *buffer, uint8_t size );
 222:Drivers/sx126x/radio/sx126x/radio.c **** 
 223:Drivers/sx126x/radio/sx126x/radio.c **** /*!
 224:Drivers/sx126x/radio/sx126x/radio.c ****  * \brief Sets the radio in sleep mode
 225:Drivers/sx126x/radio/sx126x/radio.c ****  */
 226:Drivers/sx126x/radio/sx126x/radio.c **** void RadioSleep( void );
 227:Drivers/sx126x/radio/sx126x/radio.c **** 
 228:Drivers/sx126x/radio/sx126x/radio.c **** /*!
 229:Drivers/sx126x/radio/sx126x/radio.c ****  * \brief Sets the radio in standby mode
 230:Drivers/sx126x/radio/sx126x/radio.c ****  */
 231:Drivers/sx126x/radio/sx126x/radio.c **** void RadioStandby( void );
 232:Drivers/sx126x/radio/sx126x/radio.c **** 
 233:Drivers/sx126x/radio/sx126x/radio.c **** /*!
 234:Drivers/sx126x/radio/sx126x/radio.c ****  * \brief Sets the radio in reception mode for the given time
 235:Drivers/sx126x/radio/sx126x/radio.c ****  * \param [IN] timeout Reception timeout [ms]
 236:Drivers/sx126x/radio/sx126x/radio.c ****  *                     [0: continuous, others timeout]
 237:Drivers/sx126x/radio/sx126x/radio.c ****  */
 238:Drivers/sx126x/radio/sx126x/radio.c **** void RadioRx( uint32_t timeout );
 239:Drivers/sx126x/radio/sx126x/radio.c **** 
 240:Drivers/sx126x/radio/sx126x/radio.c **** /*!
 241:Drivers/sx126x/radio/sx126x/radio.c ****  * \brief Start a Channel Activity Detection
 242:Drivers/sx126x/radio/sx126x/radio.c ****  */
 243:Drivers/sx126x/radio/sx126x/radio.c **** void RadioStartCad( void );
 244:Drivers/sx126x/radio/sx126x/radio.c **** 
 245:Drivers/sx126x/radio/sx126x/radio.c **** /*!
 246:Drivers/sx126x/radio/sx126x/radio.c ****  * \brief Sets the radio in continuous wave transmission mode
 247:Drivers/sx126x/radio/sx126x/radio.c ****  *
 248:Drivers/sx126x/radio/sx126x/radio.c ****  * \param [IN]: freq       Channel RF frequency
 249:Drivers/sx126x/radio/sx126x/radio.c ****  * \param [IN]: power      Sets the output power [dBm]
 250:Drivers/sx126x/radio/sx126x/radio.c ****  * \param [IN]: time       Transmission mode timeout [s]
 251:Drivers/sx126x/radio/sx126x/radio.c ****  */
 252:Drivers/sx126x/radio/sx126x/radio.c **** void RadioSetTxContinuousWave( uint32_t freq, int8_t power, uint16_t time );
 253:Drivers/sx126x/radio/sx126x/radio.c **** 
 254:Drivers/sx126x/radio/sx126x/radio.c **** /*!
 255:Drivers/sx126x/radio/sx126x/radio.c ****  * \brief Reads the current RSSI value
 256:Drivers/sx126x/radio/sx126x/radio.c ****  *
 257:Drivers/sx126x/radio/sx126x/radio.c ****  * \retval rssiValue Current RSSI value in [dBm]
 258:Drivers/sx126x/radio/sx126x/radio.c ****  */
ARM GAS  C:\Users\andywei\AppData\Local\Temp\ccCe1C2z.s 			page 6


 259:Drivers/sx126x/radio/sx126x/radio.c **** int16_t RadioRssi( RadioModems_t modem );
 260:Drivers/sx126x/radio/sx126x/radio.c **** 
 261:Drivers/sx126x/radio/sx126x/radio.c **** /*!
 262:Drivers/sx126x/radio/sx126x/radio.c ****  * \brief Writes the radio register at the specified address
 263:Drivers/sx126x/radio/sx126x/radio.c ****  *
 264:Drivers/sx126x/radio/sx126x/radio.c ****  * \param [IN]: addr Register address
 265:Drivers/sx126x/radio/sx126x/radio.c ****  * \param [IN]: data New register value
 266:Drivers/sx126x/radio/sx126x/radio.c ****  */
 267:Drivers/sx126x/radio/sx126x/radio.c **** void RadioWrite( uint32_t addr, uint8_t data );
 268:Drivers/sx126x/radio/sx126x/radio.c **** 
 269:Drivers/sx126x/radio/sx126x/radio.c **** /*!
 270:Drivers/sx126x/radio/sx126x/radio.c ****  * \brief Reads the radio register at the specified address
 271:Drivers/sx126x/radio/sx126x/radio.c ****  *
 272:Drivers/sx126x/radio/sx126x/radio.c ****  * \param [IN]: addr Register address
 273:Drivers/sx126x/radio/sx126x/radio.c ****  * \retval data Register value
 274:Drivers/sx126x/radio/sx126x/radio.c ****  */
 275:Drivers/sx126x/radio/sx126x/radio.c **** uint8_t RadioRead( uint32_t addr );
 276:Drivers/sx126x/radio/sx126x/radio.c **** 
 277:Drivers/sx126x/radio/sx126x/radio.c **** /*!
 278:Drivers/sx126x/radio/sx126x/radio.c ****  * \brief Writes multiple radio registers starting at address
 279:Drivers/sx126x/radio/sx126x/radio.c ****  *
 280:Drivers/sx126x/radio/sx126x/radio.c ****  * \param [IN] addr   First Radio register address
 281:Drivers/sx126x/radio/sx126x/radio.c ****  * \param [IN] buffer Buffer containing the new register's values
 282:Drivers/sx126x/radio/sx126x/radio.c ****  * \param [IN] size   Number of registers to be written
 283:Drivers/sx126x/radio/sx126x/radio.c ****  */
 284:Drivers/sx126x/radio/sx126x/radio.c **** void RadioWriteBuffer( uint32_t addr, uint8_t *buffer, uint8_t size );
 285:Drivers/sx126x/radio/sx126x/radio.c **** 
 286:Drivers/sx126x/radio/sx126x/radio.c **** /*!
 287:Drivers/sx126x/radio/sx126x/radio.c ****  * \brief Reads multiple radio registers starting at address
 288:Drivers/sx126x/radio/sx126x/radio.c ****  *
 289:Drivers/sx126x/radio/sx126x/radio.c ****  * \param [IN] addr First Radio register address
 290:Drivers/sx126x/radio/sx126x/radio.c ****  * \param [OUT] buffer Buffer where to copy the registers data
 291:Drivers/sx126x/radio/sx126x/radio.c ****  * \param [IN] size Number of registers to be read
 292:Drivers/sx126x/radio/sx126x/radio.c ****  */
 293:Drivers/sx126x/radio/sx126x/radio.c **** void RadioReadBuffer( uint32_t addr, uint8_t *buffer, uint8_t size );
 294:Drivers/sx126x/radio/sx126x/radio.c **** 
 295:Drivers/sx126x/radio/sx126x/radio.c **** /*!
 296:Drivers/sx126x/radio/sx126x/radio.c ****  * \brief Sets the maximum payload length.
 297:Drivers/sx126x/radio/sx126x/radio.c ****  *
 298:Drivers/sx126x/radio/sx126x/radio.c ****  * \param [IN] modem      Radio modem to be used [0: FSK, 1: LoRa]
 299:Drivers/sx126x/radio/sx126x/radio.c ****  * \param [IN] max        Maximum payload length in bytes
 300:Drivers/sx126x/radio/sx126x/radio.c ****  */
 301:Drivers/sx126x/radio/sx126x/radio.c **** void RadioSetMaxPayloadLength( RadioModems_t modem, uint8_t max );
 302:Drivers/sx126x/radio/sx126x/radio.c **** 
 303:Drivers/sx126x/radio/sx126x/radio.c **** /*!
 304:Drivers/sx126x/radio/sx126x/radio.c ****  * \brief Sets the network to public or private. Updates the sync byte.
 305:Drivers/sx126x/radio/sx126x/radio.c ****  *
 306:Drivers/sx126x/radio/sx126x/radio.c ****  * \remark Applies to LoRa modem only
 307:Drivers/sx126x/radio/sx126x/radio.c ****  *
 308:Drivers/sx126x/radio/sx126x/radio.c ****  * \param [IN] enable if true, it enables a public network
 309:Drivers/sx126x/radio/sx126x/radio.c ****  */
 310:Drivers/sx126x/radio/sx126x/radio.c **** void RadioSetPublicNetwork( bool enable );
 311:Drivers/sx126x/radio/sx126x/radio.c **** 
 312:Drivers/sx126x/radio/sx126x/radio.c **** /*!
 313:Drivers/sx126x/radio/sx126x/radio.c ****  * \brief Gets the time required for the board plus radio to get out of sleep.[ms]
 314:Drivers/sx126x/radio/sx126x/radio.c ****  *
 315:Drivers/sx126x/radio/sx126x/radio.c ****  * \retval time Radio plus board wakeup time in ms.
ARM GAS  C:\Users\andywei\AppData\Local\Temp\ccCe1C2z.s 			page 7


 316:Drivers/sx126x/radio/sx126x/radio.c ****  */
 317:Drivers/sx126x/radio/sx126x/radio.c **** uint32_t RadioGetWakeupTime( void );
 318:Drivers/sx126x/radio/sx126x/radio.c **** 
 319:Drivers/sx126x/radio/sx126x/radio.c **** /*!
 320:Drivers/sx126x/radio/sx126x/radio.c ****  * \brief Process radio irq
 321:Drivers/sx126x/radio/sx126x/radio.c ****  */
 322:Drivers/sx126x/radio/sx126x/radio.c **** void RadioIrqProcess( void );
 323:Drivers/sx126x/radio/sx126x/radio.c **** 
 324:Drivers/sx126x/radio/sx126x/radio.c **** /*!
 325:Drivers/sx126x/radio/sx126x/radio.c ****  * \brief Sets the radio in reception mode with Max LNA gain for the given time
 326:Drivers/sx126x/radio/sx126x/radio.c ****  * \param [IN] timeout Reception timeout [ms]
 327:Drivers/sx126x/radio/sx126x/radio.c ****  *                     [0: continuous, others timeout]
 328:Drivers/sx126x/radio/sx126x/radio.c ****  */
 329:Drivers/sx126x/radio/sx126x/radio.c **** void RadioRxBoosted( uint32_t timeout );
 330:Drivers/sx126x/radio/sx126x/radio.c **** 
 331:Drivers/sx126x/radio/sx126x/radio.c **** /*!
 332:Drivers/sx126x/radio/sx126x/radio.c ****  * \brief Sets the Rx duty cycle management parameters
 333:Drivers/sx126x/radio/sx126x/radio.c ****  *
 334:Drivers/sx126x/radio/sx126x/radio.c ****  * \param [in]  rxTime        Structure describing reception timeout value
 335:Drivers/sx126x/radio/sx126x/radio.c ****  * \param [in]  sleepTime     Structure describing sleep timeout value
 336:Drivers/sx126x/radio/sx126x/radio.c ****  */
 337:Drivers/sx126x/radio/sx126x/radio.c **** void RadioSetRxDutyCycle( uint32_t rxTime, uint32_t sleepTime );
 338:Drivers/sx126x/radio/sx126x/radio.c **** 
 339:Drivers/sx126x/radio/sx126x/radio.c **** /*!
 340:Drivers/sx126x/radio/sx126x/radio.c ****  * \brief Add a register to the retention list
 341:Drivers/sx126x/radio/sx126x/radio.c ****  *
 342:Drivers/sx126x/radio/sx126x/radio.c ****  * \param [in] registerAddress The address of the register to be kept in retention
 343:Drivers/sx126x/radio/sx126x/radio.c ****  */
 344:Drivers/sx126x/radio/sx126x/radio.c **** void RadioAddRegisterToRetentionList( uint16_t registerAddress );
 345:Drivers/sx126x/radio/sx126x/radio.c **** 
 346:Drivers/sx126x/radio/sx126x/radio.c **** /*!
 347:Drivers/sx126x/radio/sx126x/radio.c ****  * Radio driver structure initialization
 348:Drivers/sx126x/radio/sx126x/radio.c ****  */
 349:Drivers/sx126x/radio/sx126x/radio.c **** const struct Radio_s Radio =
 350:Drivers/sx126x/radio/sx126x/radio.c **** {
 351:Drivers/sx126x/radio/sx126x/radio.c ****     RadioInit,
 352:Drivers/sx126x/radio/sx126x/radio.c ****     RadioGetStatus,
 353:Drivers/sx126x/radio/sx126x/radio.c ****     RadioSetModem,
 354:Drivers/sx126x/radio/sx126x/radio.c ****     RadioSetChannel,
 355:Drivers/sx126x/radio/sx126x/radio.c ****     RadioIsChannelFree,
 356:Drivers/sx126x/radio/sx126x/radio.c ****     RadioRandom,
 357:Drivers/sx126x/radio/sx126x/radio.c ****     RadioSetRxConfig,
 358:Drivers/sx126x/radio/sx126x/radio.c ****     RadioSetTxConfig,
 359:Drivers/sx126x/radio/sx126x/radio.c ****     RadioCheckRfFrequency,
 360:Drivers/sx126x/radio/sx126x/radio.c ****     RadioTimeOnAir,
 361:Drivers/sx126x/radio/sx126x/radio.c ****     RadioSend,
 362:Drivers/sx126x/radio/sx126x/radio.c ****     RadioSleep,
 363:Drivers/sx126x/radio/sx126x/radio.c ****     RadioStandby,
 364:Drivers/sx126x/radio/sx126x/radio.c ****     RadioRx,
 365:Drivers/sx126x/radio/sx126x/radio.c ****     RadioStartCad,
 366:Drivers/sx126x/radio/sx126x/radio.c ****     RadioSetTxContinuousWave,
 367:Drivers/sx126x/radio/sx126x/radio.c ****     RadioRssi,
 368:Drivers/sx126x/radio/sx126x/radio.c ****     RadioWrite,
 369:Drivers/sx126x/radio/sx126x/radio.c ****     RadioRead,
 370:Drivers/sx126x/radio/sx126x/radio.c ****     RadioWriteBuffer,
 371:Drivers/sx126x/radio/sx126x/radio.c ****     RadioReadBuffer,
 372:Drivers/sx126x/radio/sx126x/radio.c ****     RadioSetMaxPayloadLength,
ARM GAS  C:\Users\andywei\AppData\Local\Temp\ccCe1C2z.s 			page 8


 373:Drivers/sx126x/radio/sx126x/radio.c ****     RadioSetPublicNetwork,
 374:Drivers/sx126x/radio/sx126x/radio.c ****     RadioGetWakeupTime,
 375:Drivers/sx126x/radio/sx126x/radio.c ****     RadioIrqProcess,
 376:Drivers/sx126x/radio/sx126x/radio.c ****     // Available on SX126x only
 377:Drivers/sx126x/radio/sx126x/radio.c ****     RadioRxBoosted,
 378:Drivers/sx126x/radio/sx126x/radio.c ****     RadioSetRxDutyCycle
 379:Drivers/sx126x/radio/sx126x/radio.c **** };
 380:Drivers/sx126x/radio/sx126x/radio.c **** 
 381:Drivers/sx126x/radio/sx126x/radio.c **** /*
 382:Drivers/sx126x/radio/sx126x/radio.c ****  * Local types definition
 383:Drivers/sx126x/radio/sx126x/radio.c ****  */
 384:Drivers/sx126x/radio/sx126x/radio.c **** 
 385:Drivers/sx126x/radio/sx126x/radio.c **** 
 386:Drivers/sx126x/radio/sx126x/radio.c ****  /*!
 387:Drivers/sx126x/radio/sx126x/radio.c ****  * FSK bandwidth definition
 388:Drivers/sx126x/radio/sx126x/radio.c ****  */
 389:Drivers/sx126x/radio/sx126x/radio.c **** typedef struct
 390:Drivers/sx126x/radio/sx126x/radio.c **** {
 391:Drivers/sx126x/radio/sx126x/radio.c ****     uint32_t bandwidth;
 392:Drivers/sx126x/radio/sx126x/radio.c ****     uint8_t  RegValue;
 393:Drivers/sx126x/radio/sx126x/radio.c **** }FskBandwidth_t;
 394:Drivers/sx126x/radio/sx126x/radio.c **** 
 395:Drivers/sx126x/radio/sx126x/radio.c **** /*!
 396:Drivers/sx126x/radio/sx126x/radio.c ****  * Precomputed FSK bandwidth registers values
 397:Drivers/sx126x/radio/sx126x/radio.c ****  */
 398:Drivers/sx126x/radio/sx126x/radio.c **** const FskBandwidth_t FskBandwidths[] =
 399:Drivers/sx126x/radio/sx126x/radio.c **** {
 400:Drivers/sx126x/radio/sx126x/radio.c ****     { 4800  , 0x1F },
 401:Drivers/sx126x/radio/sx126x/radio.c ****     { 5800  , 0x17 },
 402:Drivers/sx126x/radio/sx126x/radio.c ****     { 7300  , 0x0F },
 403:Drivers/sx126x/radio/sx126x/radio.c ****     { 9700  , 0x1E },
 404:Drivers/sx126x/radio/sx126x/radio.c ****     { 11700 , 0x16 },
 405:Drivers/sx126x/radio/sx126x/radio.c ****     { 14600 , 0x0E },
 406:Drivers/sx126x/radio/sx126x/radio.c ****     { 19500 , 0x1D },
 407:Drivers/sx126x/radio/sx126x/radio.c ****     { 23400 , 0x15 },
 408:Drivers/sx126x/radio/sx126x/radio.c ****     { 29300 , 0x0D },
 409:Drivers/sx126x/radio/sx126x/radio.c ****     { 39000 , 0x1C },
 410:Drivers/sx126x/radio/sx126x/radio.c ****     { 46900 , 0x14 },
 411:Drivers/sx126x/radio/sx126x/radio.c ****     { 58600 , 0x0C },
 412:Drivers/sx126x/radio/sx126x/radio.c ****     { 78200 , 0x1B },
 413:Drivers/sx126x/radio/sx126x/radio.c ****     { 93800 , 0x13 },
 414:Drivers/sx126x/radio/sx126x/radio.c ****     { 117300, 0x0B },
 415:Drivers/sx126x/radio/sx126x/radio.c ****     { 156200, 0x1A },
 416:Drivers/sx126x/radio/sx126x/radio.c ****     { 187200, 0x12 },
 417:Drivers/sx126x/radio/sx126x/radio.c ****     { 234300, 0x0A },
 418:Drivers/sx126x/radio/sx126x/radio.c ****     { 312000, 0x19 },
 419:Drivers/sx126x/radio/sx126x/radio.c ****     { 373600, 0x11 },
 420:Drivers/sx126x/radio/sx126x/radio.c ****     { 467000, 0x09 },
 421:Drivers/sx126x/radio/sx126x/radio.c ****     { 500000, 0x00 }, // Invalid Bandwidth
 422:Drivers/sx126x/radio/sx126x/radio.c **** };
 423:Drivers/sx126x/radio/sx126x/radio.c **** 
 424:Drivers/sx126x/radio/sx126x/radio.c **** const RadioLoRaBandwidths_t Bandwidths[] = { LORA_BW_125, LORA_BW_250, LORA_BW_500 };
 425:Drivers/sx126x/radio/sx126x/radio.c **** 
 426:Drivers/sx126x/radio/sx126x/radio.c **** uint8_t MaxPayloadLength = 0xFF;
 427:Drivers/sx126x/radio/sx126x/radio.c **** 
 428:Drivers/sx126x/radio/sx126x/radio.c **** uint32_t TxTimeout = 0;
 429:Drivers/sx126x/radio/sx126x/radio.c **** uint32_t RxTimeout = 0;
ARM GAS  C:\Users\andywei\AppData\Local\Temp\ccCe1C2z.s 			page 9


 430:Drivers/sx126x/radio/sx126x/radio.c **** 
 431:Drivers/sx126x/radio/sx126x/radio.c **** bool RxContinuous = false;
 432:Drivers/sx126x/radio/sx126x/radio.c **** 
 433:Drivers/sx126x/radio/sx126x/radio.c **** 
 434:Drivers/sx126x/radio/sx126x/radio.c **** PacketStatus_t RadioPktStatus;
 435:Drivers/sx126x/radio/sx126x/radio.c **** uint8_t RadioRxPayload[255];
 436:Drivers/sx126x/radio/sx126x/radio.c **** 
 437:Drivers/sx126x/radio/sx126x/radio.c **** bool IrqFired = false;
 438:Drivers/sx126x/radio/sx126x/radio.c **** 
 439:Drivers/sx126x/radio/sx126x/radio.c **** /*
 440:Drivers/sx126x/radio/sx126x/radio.c ****  * SX126x DIO IRQ callback functions prototype
 441:Drivers/sx126x/radio/sx126x/radio.c ****  */
 442:Drivers/sx126x/radio/sx126x/radio.c **** 
 443:Drivers/sx126x/radio/sx126x/radio.c **** /*!
 444:Drivers/sx126x/radio/sx126x/radio.c ****  * \brief DIO 0 IRQ callback
 445:Drivers/sx126x/radio/sx126x/radio.c ****  */
 446:Drivers/sx126x/radio/sx126x/radio.c **** void RadioOnDioIrq( void* context );
 447:Drivers/sx126x/radio/sx126x/radio.c **** 
 448:Drivers/sx126x/radio/sx126x/radio.c **** /*!
 449:Drivers/sx126x/radio/sx126x/radio.c ****  * \brief Tx timeout timer callback
 450:Drivers/sx126x/radio/sx126x/radio.c ****  */
 451:Drivers/sx126x/radio/sx126x/radio.c **** void RadioOnTxTimeoutIrq( void* context );
 452:Drivers/sx126x/radio/sx126x/radio.c **** 
 453:Drivers/sx126x/radio/sx126x/radio.c **** /*!
 454:Drivers/sx126x/radio/sx126x/radio.c ****  * \brief Rx timeout timer callback
 455:Drivers/sx126x/radio/sx126x/radio.c ****  */
 456:Drivers/sx126x/radio/sx126x/radio.c **** void RadioOnRxTimeoutIrq( void* context );
 457:Drivers/sx126x/radio/sx126x/radio.c **** 
 458:Drivers/sx126x/radio/sx126x/radio.c **** /*
 459:Drivers/sx126x/radio/sx126x/radio.c ****  * Private global variables
 460:Drivers/sx126x/radio/sx126x/radio.c ****  */
 461:Drivers/sx126x/radio/sx126x/radio.c **** 
 462:Drivers/sx126x/radio/sx126x/radio.c **** 
 463:Drivers/sx126x/radio/sx126x/radio.c **** /*!
 464:Drivers/sx126x/radio/sx126x/radio.c ****  * Holds the current network type for the radio
 465:Drivers/sx126x/radio/sx126x/radio.c ****  */
 466:Drivers/sx126x/radio/sx126x/radio.c **** typedef struct
 467:Drivers/sx126x/radio/sx126x/radio.c **** {
 468:Drivers/sx126x/radio/sx126x/radio.c ****     bool Previous;
 469:Drivers/sx126x/radio/sx126x/radio.c ****     bool Current;
 470:Drivers/sx126x/radio/sx126x/radio.c **** }RadioPublicNetwork_t;
 471:Drivers/sx126x/radio/sx126x/radio.c **** 
 472:Drivers/sx126x/radio/sx126x/radio.c **** static RadioPublicNetwork_t RadioPublicNetwork = { false };
 473:Drivers/sx126x/radio/sx126x/radio.c **** 
 474:Drivers/sx126x/radio/sx126x/radio.c **** /*!
 475:Drivers/sx126x/radio/sx126x/radio.c ****  * Radio callbacks variable
 476:Drivers/sx126x/radio/sx126x/radio.c ****  */
 477:Drivers/sx126x/radio/sx126x/radio.c **** static RadioEvents_t* RadioEvents;
 478:Drivers/sx126x/radio/sx126x/radio.c **** 
 479:Drivers/sx126x/radio/sx126x/radio.c **** /*
 480:Drivers/sx126x/radio/sx126x/radio.c ****  * Public global variables
 481:Drivers/sx126x/radio/sx126x/radio.c ****  */
 482:Drivers/sx126x/radio/sx126x/radio.c **** 
 483:Drivers/sx126x/radio/sx126x/radio.c **** /*!
 484:Drivers/sx126x/radio/sx126x/radio.c ****  * Radio hardware and global parameters
 485:Drivers/sx126x/radio/sx126x/radio.c ****  */
 486:Drivers/sx126x/radio/sx126x/radio.c **** SX126x_t SX126x;
ARM GAS  C:\Users\andywei\AppData\Local\Temp\ccCe1C2z.s 			page 10


 487:Drivers/sx126x/radio/sx126x/radio.c **** 
 488:Drivers/sx126x/radio/sx126x/radio.c **** /*!
 489:Drivers/sx126x/radio/sx126x/radio.c ****  * Tx and Rx timers
 490:Drivers/sx126x/radio/sx126x/radio.c ****  */
 491:Drivers/sx126x/radio/sx126x/radio.c **** TimerEvent_t TxTimeoutTimer;
 492:Drivers/sx126x/radio/sx126x/radio.c **** TimerEvent_t RxTimeoutTimer;
 493:Drivers/sx126x/radio/sx126x/radio.c **** 
 494:Drivers/sx126x/radio/sx126x/radio.c **** /*!
 495:Drivers/sx126x/radio/sx126x/radio.c ****  * Returns the known FSK bandwidth registers value
 496:Drivers/sx126x/radio/sx126x/radio.c ****  *
 497:Drivers/sx126x/radio/sx126x/radio.c ****  * \param [IN] bandwidth Bandwidth value in Hz
 498:Drivers/sx126x/radio/sx126x/radio.c ****  * \retval regValue Bandwidth register value.
 499:Drivers/sx126x/radio/sx126x/radio.c ****  */
 500:Drivers/sx126x/radio/sx126x/radio.c **** static uint8_t RadioGetFskBandwidthRegValue( uint32_t bandwidth )
 501:Drivers/sx126x/radio/sx126x/radio.c **** {
  29              		.loc 1 501 1 view -0
  30              		.cfi_startproc
  31              		@ args = 0, pretend = 0, frame = 0
  32              		@ frame_needed = 0, uses_anonymous_args = 0
  33              		@ link register save eliminated.
 502:Drivers/sx126x/radio/sx126x/radio.c ****     uint8_t i;
  34              		.loc 1 502 5 view .LVU1
 503:Drivers/sx126x/radio/sx126x/radio.c **** 
 504:Drivers/sx126x/radio/sx126x/radio.c ****     if( bandwidth == 0 )
  35              		.loc 1 504 5 view .LVU2
  36              		.loc 1 504 7 is_stmt 0 view .LVU3
  37 0000 0146     		mov	r1, r0
  38 0002 B0B1     		cbz	r0, .L7
 505:Drivers/sx126x/radio/sx126x/radio.c ****     {
 506:Drivers/sx126x/radio/sx126x/radio.c ****         return( 0x1F );
 507:Drivers/sx126x/radio/sx126x/radio.c ****     }
 508:Drivers/sx126x/radio/sx126x/radio.c **** 
 509:Drivers/sx126x/radio/sx126x/radio.c ****     for( i = 0; i < ( sizeof( FskBandwidths ) / sizeof( FskBandwidth_t ) ) - 1; i++ )
  39              		.loc 1 509 12 view .LVU4
  40 0004 0023     		movs	r3, #0
  41 0006 01E0     		b	.L3
  42              	.LVL1:
  43              	.L4:
  44              		.loc 1 509 81 is_stmt 1 discriminator 2 view .LVU5
  45              		.loc 1 509 82 is_stmt 0 discriminator 2 view .LVU6
  46 0008 0133     		adds	r3, r3, #1
  47              	.LVL2:
  48              		.loc 1 509 82 discriminator 2 view .LVU7
  49 000a DBB2     		uxtb	r3, r3
  50              	.LVL3:
  51              	.L3:
  52              		.loc 1 509 17 is_stmt 1 discriminator 1 view .LVU8
  53              		.loc 1 509 5 is_stmt 0 discriminator 1 view .LVU9
  54 000c 142B     		cmp	r3, #20
  55 000e 0FD8     		bhi	.L6
 510:Drivers/sx126x/radio/sx126x/radio.c ****     {
 511:Drivers/sx126x/radio/sx126x/radio.c ****         if( ( bandwidth >= FskBandwidths[i].bandwidth ) && ( bandwidth < FskBandwidths[i + 1].bandw
  56              		.loc 1 511 9 is_stmt 1 view .LVU10
  57              		.loc 1 511 44 is_stmt 0 view .LVU11
  58 0010 094A     		ldr	r2, .L8
  59 0012 52F83320 		ldr	r2, [r2, r3, lsl #3]
  60              		.loc 1 511 11 view .LVU12
ARM GAS  C:\Users\andywei\AppData\Local\Temp\ccCe1C2z.s 			page 11


  61 0016 8A42     		cmp	r2, r1
  62 0018 F6D8     		bhi	.L4
  63              		.loc 1 511 90 discriminator 1 view .LVU13
  64 001a 5A1C     		adds	r2, r3, #1
  65              		.loc 1 511 94 discriminator 1 view .LVU14
  66 001c 0648     		ldr	r0, .L8
  67 001e 50F83200 		ldr	r0, [r0, r2, lsl #3]
  68              		.loc 1 511 57 discriminator 1 view .LVU15
  69 0022 8842     		cmp	r0, r1
  70 0024 F0D9     		bls	.L4
 512:Drivers/sx126x/radio/sx126x/radio.c ****         {
 513:Drivers/sx126x/radio/sx126x/radio.c ****             return FskBandwidths[i+1].RegValue;
  71              		.loc 1 513 13 is_stmt 1 view .LVU16
  72              		.loc 1 513 38 is_stmt 0 view .LVU17
  73 0026 044B     		ldr	r3, .L8
  74              	.LVL4:
  75              		.loc 1 513 38 view .LVU18
  76 0028 03EBC202 		add	r2, r3, r2, lsl #3
  77 002c 1079     		ldrb	r0, [r2, #4]	@ zero_extendqisi2
  78 002e 7047     		bx	lr
  79              	.LVL5:
  80              	.L6:
 514:Drivers/sx126x/radio/sx126x/radio.c ****         }
 515:Drivers/sx126x/radio/sx126x/radio.c ****     }
 516:Drivers/sx126x/radio/sx126x/radio.c ****     // ERROR: Value not found
 517:Drivers/sx126x/radio/sx126x/radio.c ****     while( 1 );
  81              		.loc 1 517 5 is_stmt 1 discriminator 1 view .LVU19
  82              		.loc 1 517 15 discriminator 1 view .LVU20
  83              		.loc 1 517 10 discriminator 1 view .LVU21
  84 0030 FEE7     		b	.L6
  85              	.LVL6:
  86              	.L7:
 506:Drivers/sx126x/radio/sx126x/radio.c ****     }
  87              		.loc 1 506 15 is_stmt 0 view .LVU22
  88 0032 1F20     		movs	r0, #31
  89              	.LVL7:
 518:Drivers/sx126x/radio/sx126x/radio.c **** }
  90              		.loc 1 518 1 view .LVU23
  91 0034 7047     		bx	lr
  92              	.L9:
  93 0036 00BF     		.align	2
  94              	.L8:
  95 0038 00000000 		.word	.LANCHOR0
  96              		.cfi_endproc
  97              	.LFE0:
  99              		.section	.text.RadioCheckRfFrequency,"ax",%progbits
 100              		.align	1
 101              		.global	RadioCheckRfFrequency
 102              		.syntax unified
 103              		.thumb
 104              		.thumb_func
 105              		.fpu fpv4-sp-d16
 107              	RadioCheckRfFrequency:
 108              	.LVL8:
 109              	.LFB9:
 519:Drivers/sx126x/radio/sx126x/radio.c **** 
 520:Drivers/sx126x/radio/sx126x/radio.c **** void RadioInit( RadioEvents_t *events )
ARM GAS  C:\Users\andywei\AppData\Local\Temp\ccCe1C2z.s 			page 12


 521:Drivers/sx126x/radio/sx126x/radio.c **** {
 522:Drivers/sx126x/radio/sx126x/radio.c ****     RadioEvents = events;
 523:Drivers/sx126x/radio/sx126x/radio.c **** 
 524:Drivers/sx126x/radio/sx126x/radio.c ****     SX126xInit( RadioOnDioIrq );
 525:Drivers/sx126x/radio/sx126x/radio.c ****     SX126xSetStandby( STDBY_RC );
 526:Drivers/sx126x/radio/sx126x/radio.c ****     SX126xSetRegulatorMode( USE_DCDC );
 527:Drivers/sx126x/radio/sx126x/radio.c **** 
 528:Drivers/sx126x/radio/sx126x/radio.c ****     SX126xSetBufferBaseAddress( 0x00, 0x00 );
 529:Drivers/sx126x/radio/sx126x/radio.c ****     SX126xSetTxParams( 0, RADIO_RAMP_200_US );
 530:Drivers/sx126x/radio/sx126x/radio.c ****     SX126xSetDioIrqParams( IRQ_RADIO_ALL, IRQ_RADIO_ALL, IRQ_RADIO_NONE, IRQ_RADIO_NONE );
 531:Drivers/sx126x/radio/sx126x/radio.c **** 
 532:Drivers/sx126x/radio/sx126x/radio.c ****     // Add registers to the retention list (4 is the maximum possible number)
 533:Drivers/sx126x/radio/sx126x/radio.c ****     RadioAddRegisterToRetentionList( REG_RX_GAIN );
 534:Drivers/sx126x/radio/sx126x/radio.c ****     RadioAddRegisterToRetentionList( REG_TX_MODULATION );
 535:Drivers/sx126x/radio/sx126x/radio.c **** 
 536:Drivers/sx126x/radio/sx126x/radio.c ****     // Initialize driver timeout timers
 537:Drivers/sx126x/radio/sx126x/radio.c ****     // TimerInit( &TxTimeoutTimer, RadioOnTxTimeoutIrq );
 538:Drivers/sx126x/radio/sx126x/radio.c ****     // TimerInit( &RxTimeoutTimer, RadioOnRxTimeoutIrq );
 539:Drivers/sx126x/radio/sx126x/radio.c **** 
 540:Drivers/sx126x/radio/sx126x/radio.c ****     IrqFired = false;
 541:Drivers/sx126x/radio/sx126x/radio.c **** }
 542:Drivers/sx126x/radio/sx126x/radio.c **** 
 543:Drivers/sx126x/radio/sx126x/radio.c **** RadioState_t RadioGetStatus( void )
 544:Drivers/sx126x/radio/sx126x/radio.c **** {
 545:Drivers/sx126x/radio/sx126x/radio.c ****     switch( SX126xGetOperatingMode( ) )
 546:Drivers/sx126x/radio/sx126x/radio.c ****     {
 547:Drivers/sx126x/radio/sx126x/radio.c ****         case MODE_TX:
 548:Drivers/sx126x/radio/sx126x/radio.c ****             return RF_TX_RUNNING;
 549:Drivers/sx126x/radio/sx126x/radio.c ****         case MODE_RX:
 550:Drivers/sx126x/radio/sx126x/radio.c ****             return RF_RX_RUNNING;
 551:Drivers/sx126x/radio/sx126x/radio.c ****         case MODE_CAD:
 552:Drivers/sx126x/radio/sx126x/radio.c ****             return RF_CAD;
 553:Drivers/sx126x/radio/sx126x/radio.c ****         default:
 554:Drivers/sx126x/radio/sx126x/radio.c ****             return RF_IDLE;
 555:Drivers/sx126x/radio/sx126x/radio.c ****     }
 556:Drivers/sx126x/radio/sx126x/radio.c **** }
 557:Drivers/sx126x/radio/sx126x/radio.c **** 
 558:Drivers/sx126x/radio/sx126x/radio.c **** void RadioSetModem( RadioModems_t modem )
 559:Drivers/sx126x/radio/sx126x/radio.c **** {
 560:Drivers/sx126x/radio/sx126x/radio.c ****     switch( modem )
 561:Drivers/sx126x/radio/sx126x/radio.c ****     {
 562:Drivers/sx126x/radio/sx126x/radio.c ****     default:
 563:Drivers/sx126x/radio/sx126x/radio.c ****     case MODEM_FSK:
 564:Drivers/sx126x/radio/sx126x/radio.c ****         SX126xSetPacketType( PACKET_TYPE_GFSK );
 565:Drivers/sx126x/radio/sx126x/radio.c ****         // When switching to GFSK mode the LoRa SyncWord register value is reset
 566:Drivers/sx126x/radio/sx126x/radio.c ****         // Thus, we also reset the RadioPublicNetwork variable
 567:Drivers/sx126x/radio/sx126x/radio.c ****         RadioPublicNetwork.Current = false;
 568:Drivers/sx126x/radio/sx126x/radio.c ****         break;
 569:Drivers/sx126x/radio/sx126x/radio.c ****     case MODEM_LORA:
 570:Drivers/sx126x/radio/sx126x/radio.c ****         SX126xSetPacketType( PACKET_TYPE_LORA );
 571:Drivers/sx126x/radio/sx126x/radio.c ****         // Public/Private network register is reset when switching modems
 572:Drivers/sx126x/radio/sx126x/radio.c ****         if( RadioPublicNetwork.Current != RadioPublicNetwork.Previous )
 573:Drivers/sx126x/radio/sx126x/radio.c ****         {
 574:Drivers/sx126x/radio/sx126x/radio.c ****             RadioPublicNetwork.Current = RadioPublicNetwork.Previous;
 575:Drivers/sx126x/radio/sx126x/radio.c ****             RadioSetPublicNetwork( RadioPublicNetwork.Current );
 576:Drivers/sx126x/radio/sx126x/radio.c ****         }
 577:Drivers/sx126x/radio/sx126x/radio.c ****         break;
ARM GAS  C:\Users\andywei\AppData\Local\Temp\ccCe1C2z.s 			page 13


 578:Drivers/sx126x/radio/sx126x/radio.c ****     }
 579:Drivers/sx126x/radio/sx126x/radio.c **** }
 580:Drivers/sx126x/radio/sx126x/radio.c **** 
 581:Drivers/sx126x/radio/sx126x/radio.c **** void RadioSetChannel( uint32_t freq )
 582:Drivers/sx126x/radio/sx126x/radio.c **** {
 583:Drivers/sx126x/radio/sx126x/radio.c ****     SX126xSetRfFrequency( freq );
 584:Drivers/sx126x/radio/sx126x/radio.c **** }
 585:Drivers/sx126x/radio/sx126x/radio.c **** 
 586:Drivers/sx126x/radio/sx126x/radio.c **** bool RadioIsChannelFree( uint32_t freq, uint32_t rxBandwidth, int16_t rssiThresh, uint32_t maxCarri
 587:Drivers/sx126x/radio/sx126x/radio.c **** {
 588:Drivers/sx126x/radio/sx126x/radio.c ****     bool     status           = true;
 589:Drivers/sx126x/radio/sx126x/radio.c ****     int16_t  rssi             = 0;
 590:Drivers/sx126x/radio/sx126x/radio.c ****     uint32_t carrierSenseTime = 0;
 591:Drivers/sx126x/radio/sx126x/radio.c **** 
 592:Drivers/sx126x/radio/sx126x/radio.c ****     RadioSetModem( MODEM_FSK );
 593:Drivers/sx126x/radio/sx126x/radio.c **** 
 594:Drivers/sx126x/radio/sx126x/radio.c ****     RadioSetChannel( freq );
 595:Drivers/sx126x/radio/sx126x/radio.c **** 
 596:Drivers/sx126x/radio/sx126x/radio.c ****     // Set Rx bandwidth. Other parameters are not used.
 597:Drivers/sx126x/radio/sx126x/radio.c ****     RadioSetRxConfig( MODEM_FSK, rxBandwidth, 600, 0, rxBandwidth, 3, 0, false,
 598:Drivers/sx126x/radio/sx126x/radio.c ****                       0, false, 0, 0, false, true );
 599:Drivers/sx126x/radio/sx126x/radio.c ****     RadioRx( 0 );
 600:Drivers/sx126x/radio/sx126x/radio.c **** 
 601:Drivers/sx126x/radio/sx126x/radio.c ****     DelayMs( 1 );
 602:Drivers/sx126x/radio/sx126x/radio.c **** 
 603:Drivers/sx126x/radio/sx126x/radio.c ****     // carrierSenseTime = TimerGetCurrentTime( );
 604:Drivers/sx126x/radio/sx126x/radio.c **** 
 605:Drivers/sx126x/radio/sx126x/radio.c ****     // Perform carrier sense for maxCarrierSenseTime
 606:Drivers/sx126x/radio/sx126x/radio.c ****     // while( TimerGetElapsedTime( carrierSenseTime ) < maxCarrierSenseTime )
 607:Drivers/sx126x/radio/sx126x/radio.c ****     while(1)
 608:Drivers/sx126x/radio/sx126x/radio.c ****     {
 609:Drivers/sx126x/radio/sx126x/radio.c ****         rssi = RadioRssi( MODEM_FSK );
 610:Drivers/sx126x/radio/sx126x/radio.c **** 
 611:Drivers/sx126x/radio/sx126x/radio.c ****         if( rssi > rssiThresh )
 612:Drivers/sx126x/radio/sx126x/radio.c ****         {
 613:Drivers/sx126x/radio/sx126x/radio.c ****             status = false;
 614:Drivers/sx126x/radio/sx126x/radio.c ****             break;
 615:Drivers/sx126x/radio/sx126x/radio.c ****         }
 616:Drivers/sx126x/radio/sx126x/radio.c ****     }
 617:Drivers/sx126x/radio/sx126x/radio.c ****     RadioSleep( );
 618:Drivers/sx126x/radio/sx126x/radio.c ****     return status;
 619:Drivers/sx126x/radio/sx126x/radio.c **** }
 620:Drivers/sx126x/radio/sx126x/radio.c **** 
 621:Drivers/sx126x/radio/sx126x/radio.c **** uint32_t RadioRandom( void )
 622:Drivers/sx126x/radio/sx126x/radio.c **** {
 623:Drivers/sx126x/radio/sx126x/radio.c ****     uint32_t rnd = 0;
 624:Drivers/sx126x/radio/sx126x/radio.c **** 
 625:Drivers/sx126x/radio/sx126x/radio.c ****     /*
 626:Drivers/sx126x/radio/sx126x/radio.c ****      * Radio setup for random number generation
 627:Drivers/sx126x/radio/sx126x/radio.c ****      */
 628:Drivers/sx126x/radio/sx126x/radio.c ****     // Set LoRa modem ON
 629:Drivers/sx126x/radio/sx126x/radio.c ****     RadioSetModem( MODEM_LORA );
 630:Drivers/sx126x/radio/sx126x/radio.c **** 
 631:Drivers/sx126x/radio/sx126x/radio.c ****     // Disable LoRa modem interrupts
 632:Drivers/sx126x/radio/sx126x/radio.c ****     SX126xSetDioIrqParams( IRQ_RADIO_NONE, IRQ_RADIO_NONE, IRQ_RADIO_NONE, IRQ_RADIO_NONE );
 633:Drivers/sx126x/radio/sx126x/radio.c **** 
 634:Drivers/sx126x/radio/sx126x/radio.c ****     rnd = SX126xGetRandom( );
ARM GAS  C:\Users\andywei\AppData\Local\Temp\ccCe1C2z.s 			page 14


 635:Drivers/sx126x/radio/sx126x/radio.c **** 
 636:Drivers/sx126x/radio/sx126x/radio.c ****     return rnd;
 637:Drivers/sx126x/radio/sx126x/radio.c **** }
 638:Drivers/sx126x/radio/sx126x/radio.c **** 
 639:Drivers/sx126x/radio/sx126x/radio.c **** void RadioSetRxConfig( RadioModems_t modem, uint32_t bandwidth,
 640:Drivers/sx126x/radio/sx126x/radio.c ****                          uint32_t datarate, uint8_t coderate,
 641:Drivers/sx126x/radio/sx126x/radio.c ****                          uint32_t bandwidthAfc, uint16_t preambleLen,
 642:Drivers/sx126x/radio/sx126x/radio.c ****                          uint16_t symbTimeout, bool fixLen,
 643:Drivers/sx126x/radio/sx126x/radio.c ****                          uint8_t payloadLen,
 644:Drivers/sx126x/radio/sx126x/radio.c ****                          bool crcOn, bool freqHopOn, uint8_t hopPeriod,
 645:Drivers/sx126x/radio/sx126x/radio.c ****                          bool iqInverted, bool rxContinuous )
 646:Drivers/sx126x/radio/sx126x/radio.c **** {
 647:Drivers/sx126x/radio/sx126x/radio.c **** 
 648:Drivers/sx126x/radio/sx126x/radio.c ****     RxContinuous = rxContinuous;
 649:Drivers/sx126x/radio/sx126x/radio.c ****     if( rxContinuous == true )
 650:Drivers/sx126x/radio/sx126x/radio.c ****     {
 651:Drivers/sx126x/radio/sx126x/radio.c ****         symbTimeout = 0;
 652:Drivers/sx126x/radio/sx126x/radio.c ****     }
 653:Drivers/sx126x/radio/sx126x/radio.c ****     if( fixLen == true )
 654:Drivers/sx126x/radio/sx126x/radio.c ****     {
 655:Drivers/sx126x/radio/sx126x/radio.c ****         MaxPayloadLength = payloadLen;
 656:Drivers/sx126x/radio/sx126x/radio.c ****     }
 657:Drivers/sx126x/radio/sx126x/radio.c ****     else
 658:Drivers/sx126x/radio/sx126x/radio.c ****     {
 659:Drivers/sx126x/radio/sx126x/radio.c ****         MaxPayloadLength = 0xFF;
 660:Drivers/sx126x/radio/sx126x/radio.c ****     }
 661:Drivers/sx126x/radio/sx126x/radio.c **** 
 662:Drivers/sx126x/radio/sx126x/radio.c ****     switch( modem )
 663:Drivers/sx126x/radio/sx126x/radio.c ****     {
 664:Drivers/sx126x/radio/sx126x/radio.c ****         case MODEM_FSK:
 665:Drivers/sx126x/radio/sx126x/radio.c ****             SX126xSetStopRxTimerOnPreambleDetect( false );
 666:Drivers/sx126x/radio/sx126x/radio.c ****             SX126x.ModulationParams.PacketType = PACKET_TYPE_GFSK;
 667:Drivers/sx126x/radio/sx126x/radio.c **** 
 668:Drivers/sx126x/radio/sx126x/radio.c ****             SX126x.ModulationParams.Params.Gfsk.BitRate = datarate;
 669:Drivers/sx126x/radio/sx126x/radio.c ****             SX126x.ModulationParams.Params.Gfsk.ModulationShaping = MOD_SHAPING_G_BT_1;
 670:Drivers/sx126x/radio/sx126x/radio.c ****             SX126x.ModulationParams.Params.Gfsk.Bandwidth = RadioGetFskBandwidthRegValue( bandwidth
 671:Drivers/sx126x/radio/sx126x/radio.c **** 
 672:Drivers/sx126x/radio/sx126x/radio.c ****             SX126x.PacketParams.PacketType = PACKET_TYPE_GFSK;
 673:Drivers/sx126x/radio/sx126x/radio.c ****             SX126x.PacketParams.Params.Gfsk.PreambleLength = ( preambleLen << 3 ); // convert byte 
 674:Drivers/sx126x/radio/sx126x/radio.c ****             SX126x.PacketParams.Params.Gfsk.PreambleMinDetect = RADIO_PREAMBLE_DETECTOR_08_BITS;
 675:Drivers/sx126x/radio/sx126x/radio.c ****             SX126x.PacketParams.Params.Gfsk.SyncWordLength = 3 << 3; // convert byte into bit
 676:Drivers/sx126x/radio/sx126x/radio.c ****             SX126x.PacketParams.Params.Gfsk.AddrComp = RADIO_ADDRESSCOMP_FILT_OFF;
 677:Drivers/sx126x/radio/sx126x/radio.c ****             SX126x.PacketParams.Params.Gfsk.HeaderType = ( fixLen == true ) ? RADIO_PACKET_FIXED_LE
 678:Drivers/sx126x/radio/sx126x/radio.c ****             SX126x.PacketParams.Params.Gfsk.PayloadLength = MaxPayloadLength;
 679:Drivers/sx126x/radio/sx126x/radio.c ****             if( crcOn == true )
 680:Drivers/sx126x/radio/sx126x/radio.c ****             {
 681:Drivers/sx126x/radio/sx126x/radio.c ****                 SX126x.PacketParams.Params.Gfsk.CrcLength = RADIO_CRC_2_BYTES_CCIT;
 682:Drivers/sx126x/radio/sx126x/radio.c ****             }
 683:Drivers/sx126x/radio/sx126x/radio.c ****             else
 684:Drivers/sx126x/radio/sx126x/radio.c ****             {
 685:Drivers/sx126x/radio/sx126x/radio.c ****                 SX126x.PacketParams.Params.Gfsk.CrcLength = RADIO_CRC_OFF;
 686:Drivers/sx126x/radio/sx126x/radio.c ****             }
 687:Drivers/sx126x/radio/sx126x/radio.c ****             SX126x.PacketParams.Params.Gfsk.DcFree = RADIO_DC_FREEWHITENING;
 688:Drivers/sx126x/radio/sx126x/radio.c **** 
 689:Drivers/sx126x/radio/sx126x/radio.c ****             RadioStandby( );
 690:Drivers/sx126x/radio/sx126x/radio.c ****             RadioSetModem( ( SX126x.ModulationParams.PacketType == PACKET_TYPE_GFSK ) ? MODEM_FSK :
 691:Drivers/sx126x/radio/sx126x/radio.c ****             SX126xSetModulationParams( &SX126x.ModulationParams );
ARM GAS  C:\Users\andywei\AppData\Local\Temp\ccCe1C2z.s 			page 15


 692:Drivers/sx126x/radio/sx126x/radio.c ****             SX126xSetPacketParams( &SX126x.PacketParams );
 693:Drivers/sx126x/radio/sx126x/radio.c ****             SX126xSetSyncWord( ( uint8_t[] ){ 0xC1, 0x94, 0xC1, 0x00, 0x00, 0x00, 0x00, 0x00 } );
 694:Drivers/sx126x/radio/sx126x/radio.c ****             SX126xSetWhiteningSeed( 0x01FF );
 695:Drivers/sx126x/radio/sx126x/radio.c **** 
 696:Drivers/sx126x/radio/sx126x/radio.c ****             RxTimeout = ( uint32_t )symbTimeout * 8000UL / datarate;
 697:Drivers/sx126x/radio/sx126x/radio.c ****             break;
 698:Drivers/sx126x/radio/sx126x/radio.c **** 
 699:Drivers/sx126x/radio/sx126x/radio.c ****         case MODEM_LORA:
 700:Drivers/sx126x/radio/sx126x/radio.c ****             SX126xSetStopRxTimerOnPreambleDetect( false );
 701:Drivers/sx126x/radio/sx126x/radio.c ****             SX126x.ModulationParams.PacketType = PACKET_TYPE_LORA;
 702:Drivers/sx126x/radio/sx126x/radio.c ****             SX126x.ModulationParams.Params.LoRa.SpreadingFactor = ( RadioLoRaSpreadingFactors_t )da
 703:Drivers/sx126x/radio/sx126x/radio.c ****             SX126x.ModulationParams.Params.LoRa.Bandwidth = Bandwidths[bandwidth];
 704:Drivers/sx126x/radio/sx126x/radio.c ****             SX126x.ModulationParams.Params.LoRa.CodingRate = ( RadioLoRaCodingRates_t )coderate;
 705:Drivers/sx126x/radio/sx126x/radio.c **** 
 706:Drivers/sx126x/radio/sx126x/radio.c ****             if( ( ( bandwidth == 0 ) && ( ( datarate == 11 ) || ( datarate == 12 ) ) ) ||
 707:Drivers/sx126x/radio/sx126x/radio.c ****             ( ( bandwidth == 1 ) && ( datarate == 12 ) ) )
 708:Drivers/sx126x/radio/sx126x/radio.c ****             {
 709:Drivers/sx126x/radio/sx126x/radio.c ****                 SX126x.ModulationParams.Params.LoRa.LowDatarateOptimize = 0x01;
 710:Drivers/sx126x/radio/sx126x/radio.c ****             }
 711:Drivers/sx126x/radio/sx126x/radio.c ****             else
 712:Drivers/sx126x/radio/sx126x/radio.c ****             {
 713:Drivers/sx126x/radio/sx126x/radio.c ****                 SX126x.ModulationParams.Params.LoRa.LowDatarateOptimize = 0x00;
 714:Drivers/sx126x/radio/sx126x/radio.c ****             }
 715:Drivers/sx126x/radio/sx126x/radio.c **** 
 716:Drivers/sx126x/radio/sx126x/radio.c ****             SX126x.PacketParams.PacketType = PACKET_TYPE_LORA;
 717:Drivers/sx126x/radio/sx126x/radio.c **** 
 718:Drivers/sx126x/radio/sx126x/radio.c ****             if( ( SX126x.ModulationParams.Params.LoRa.SpreadingFactor == LORA_SF5 ) ||
 719:Drivers/sx126x/radio/sx126x/radio.c ****                 ( SX126x.ModulationParams.Params.LoRa.SpreadingFactor == LORA_SF6 ) )
 720:Drivers/sx126x/radio/sx126x/radio.c ****             {
 721:Drivers/sx126x/radio/sx126x/radio.c ****                 if( preambleLen < 12 )
 722:Drivers/sx126x/radio/sx126x/radio.c ****                 {
 723:Drivers/sx126x/radio/sx126x/radio.c ****                     SX126x.PacketParams.Params.LoRa.PreambleLength = 12;
 724:Drivers/sx126x/radio/sx126x/radio.c ****                 }
 725:Drivers/sx126x/radio/sx126x/radio.c ****                 else
 726:Drivers/sx126x/radio/sx126x/radio.c ****                 {
 727:Drivers/sx126x/radio/sx126x/radio.c ****                     SX126x.PacketParams.Params.LoRa.PreambleLength = preambleLen;
 728:Drivers/sx126x/radio/sx126x/radio.c ****                 }
 729:Drivers/sx126x/radio/sx126x/radio.c ****             }
 730:Drivers/sx126x/radio/sx126x/radio.c ****             else
 731:Drivers/sx126x/radio/sx126x/radio.c ****             {
 732:Drivers/sx126x/radio/sx126x/radio.c ****                 SX126x.PacketParams.Params.LoRa.PreambleLength = preambleLen;
 733:Drivers/sx126x/radio/sx126x/radio.c ****             }
 734:Drivers/sx126x/radio/sx126x/radio.c **** 
 735:Drivers/sx126x/radio/sx126x/radio.c ****             SX126x.PacketParams.Params.LoRa.HeaderType = ( RadioLoRaPacketLengthsMode_t )fixLen;
 736:Drivers/sx126x/radio/sx126x/radio.c **** 
 737:Drivers/sx126x/radio/sx126x/radio.c ****             SX126x.PacketParams.Params.LoRa.PayloadLength = MaxPayloadLength;
 738:Drivers/sx126x/radio/sx126x/radio.c ****             SX126x.PacketParams.Params.LoRa.CrcMode = ( RadioLoRaCrcModes_t )crcOn;
 739:Drivers/sx126x/radio/sx126x/radio.c ****             SX126x.PacketParams.Params.LoRa.InvertIQ = ( RadioLoRaIQModes_t )iqInverted;
 740:Drivers/sx126x/radio/sx126x/radio.c **** 
 741:Drivers/sx126x/radio/sx126x/radio.c ****             RadioStandby( );
 742:Drivers/sx126x/radio/sx126x/radio.c ****             RadioSetModem( ( SX126x.ModulationParams.PacketType == PACKET_TYPE_GFSK ) ? MODEM_FSK :
 743:Drivers/sx126x/radio/sx126x/radio.c ****             SX126xSetModulationParams( &SX126x.ModulationParams );
 744:Drivers/sx126x/radio/sx126x/radio.c ****             SX126xSetPacketParams( &SX126x.PacketParams );
 745:Drivers/sx126x/radio/sx126x/radio.c ****             SX126xSetLoRaSymbNumTimeout( symbTimeout );
 746:Drivers/sx126x/radio/sx126x/radio.c **** 
 747:Drivers/sx126x/radio/sx126x/radio.c ****             // WORKAROUND - Optimizing the Inverted IQ Operation, see DS_SX1261-2_V1.2 datasheet ch
 748:Drivers/sx126x/radio/sx126x/radio.c ****             if( SX126x.PacketParams.Params.LoRa.InvertIQ == LORA_IQ_INVERTED )
ARM GAS  C:\Users\andywei\AppData\Local\Temp\ccCe1C2z.s 			page 16


 749:Drivers/sx126x/radio/sx126x/radio.c ****             {
 750:Drivers/sx126x/radio/sx126x/radio.c ****                 SX126xWriteRegister( REG_IQ_POLARITY, SX126xReadRegister( REG_IQ_POLARITY ) & ~( 1 
 751:Drivers/sx126x/radio/sx126x/radio.c ****             }
 752:Drivers/sx126x/radio/sx126x/radio.c ****             else
 753:Drivers/sx126x/radio/sx126x/radio.c ****             {
 754:Drivers/sx126x/radio/sx126x/radio.c ****                 SX126xWriteRegister( REG_IQ_POLARITY, SX126xReadRegister( REG_IQ_POLARITY ) | ( 1 <
 755:Drivers/sx126x/radio/sx126x/radio.c ****             }
 756:Drivers/sx126x/radio/sx126x/radio.c ****             // WORKAROUND END
 757:Drivers/sx126x/radio/sx126x/radio.c **** 
 758:Drivers/sx126x/radio/sx126x/radio.c ****             // Timeout Max, Timeout handled directly in SetRx function
 759:Drivers/sx126x/radio/sx126x/radio.c ****             RxTimeout = 0xFFFF;
 760:Drivers/sx126x/radio/sx126x/radio.c **** 
 761:Drivers/sx126x/radio/sx126x/radio.c ****             break;
 762:Drivers/sx126x/radio/sx126x/radio.c ****     }
 763:Drivers/sx126x/radio/sx126x/radio.c **** }
 764:Drivers/sx126x/radio/sx126x/radio.c **** 
 765:Drivers/sx126x/radio/sx126x/radio.c **** void RadioSetTxConfig( RadioModems_t modem, int8_t power, uint32_t fdev,
 766:Drivers/sx126x/radio/sx126x/radio.c ****                         uint32_t bandwidth, uint32_t datarate,
 767:Drivers/sx126x/radio/sx126x/radio.c ****                         uint8_t coderate, uint16_t preambleLen,
 768:Drivers/sx126x/radio/sx126x/radio.c ****                         bool fixLen, bool crcOn, bool freqHopOn,
 769:Drivers/sx126x/radio/sx126x/radio.c ****                         uint8_t hopPeriod, bool iqInverted, uint32_t timeout )
 770:Drivers/sx126x/radio/sx126x/radio.c **** {
 771:Drivers/sx126x/radio/sx126x/radio.c **** 
 772:Drivers/sx126x/radio/sx126x/radio.c ****     switch( modem )
 773:Drivers/sx126x/radio/sx126x/radio.c ****     {
 774:Drivers/sx126x/radio/sx126x/radio.c ****         case MODEM_FSK:
 775:Drivers/sx126x/radio/sx126x/radio.c ****             SX126x.ModulationParams.PacketType = PACKET_TYPE_GFSK;
 776:Drivers/sx126x/radio/sx126x/radio.c ****             SX126x.ModulationParams.Params.Gfsk.BitRate = datarate;
 777:Drivers/sx126x/radio/sx126x/radio.c **** 
 778:Drivers/sx126x/radio/sx126x/radio.c ****             SX126x.ModulationParams.Params.Gfsk.ModulationShaping = MOD_SHAPING_G_BT_1;
 779:Drivers/sx126x/radio/sx126x/radio.c ****             SX126x.ModulationParams.Params.Gfsk.Bandwidth = RadioGetFskBandwidthRegValue( bandwidth
 780:Drivers/sx126x/radio/sx126x/radio.c ****             SX126x.ModulationParams.Params.Gfsk.Fdev = fdev;
 781:Drivers/sx126x/radio/sx126x/radio.c **** 
 782:Drivers/sx126x/radio/sx126x/radio.c ****             SX126x.PacketParams.PacketType = PACKET_TYPE_GFSK;
 783:Drivers/sx126x/radio/sx126x/radio.c ****             SX126x.PacketParams.Params.Gfsk.PreambleLength = ( preambleLen << 3 ); // convert byte 
 784:Drivers/sx126x/radio/sx126x/radio.c ****             SX126x.PacketParams.Params.Gfsk.PreambleMinDetect = RADIO_PREAMBLE_DETECTOR_08_BITS;
 785:Drivers/sx126x/radio/sx126x/radio.c ****             SX126x.PacketParams.Params.Gfsk.SyncWordLength = 3 << 3 ; // convert byte into bit
 786:Drivers/sx126x/radio/sx126x/radio.c ****             SX126x.PacketParams.Params.Gfsk.AddrComp = RADIO_ADDRESSCOMP_FILT_OFF;
 787:Drivers/sx126x/radio/sx126x/radio.c ****             SX126x.PacketParams.Params.Gfsk.HeaderType = ( fixLen == true ) ? RADIO_PACKET_FIXED_LE
 788:Drivers/sx126x/radio/sx126x/radio.c **** 
 789:Drivers/sx126x/radio/sx126x/radio.c ****             if( crcOn == true )
 790:Drivers/sx126x/radio/sx126x/radio.c ****             {
 791:Drivers/sx126x/radio/sx126x/radio.c ****                 SX126x.PacketParams.Params.Gfsk.CrcLength = RADIO_CRC_2_BYTES_CCIT;
 792:Drivers/sx126x/radio/sx126x/radio.c ****             }
 793:Drivers/sx126x/radio/sx126x/radio.c ****             else
 794:Drivers/sx126x/radio/sx126x/radio.c ****             {
 795:Drivers/sx126x/radio/sx126x/radio.c ****                 SX126x.PacketParams.Params.Gfsk.CrcLength = RADIO_CRC_OFF;
 796:Drivers/sx126x/radio/sx126x/radio.c ****             }
 797:Drivers/sx126x/radio/sx126x/radio.c ****             SX126x.PacketParams.Params.Gfsk.DcFree = RADIO_DC_FREEWHITENING;
 798:Drivers/sx126x/radio/sx126x/radio.c **** 
 799:Drivers/sx126x/radio/sx126x/radio.c ****             RadioStandby( );
 800:Drivers/sx126x/radio/sx126x/radio.c ****             RadioSetModem( ( SX126x.ModulationParams.PacketType == PACKET_TYPE_GFSK ) ? MODEM_FSK :
 801:Drivers/sx126x/radio/sx126x/radio.c ****             SX126xSetModulationParams( &SX126x.ModulationParams );
 802:Drivers/sx126x/radio/sx126x/radio.c ****             SX126xSetPacketParams( &SX126x.PacketParams );
 803:Drivers/sx126x/radio/sx126x/radio.c ****             SX126xSetSyncWord( ( uint8_t[] ){ 0xC1, 0x94, 0xC1, 0x00, 0x00, 0x00, 0x00, 0x00 } );
 804:Drivers/sx126x/radio/sx126x/radio.c ****             SX126xSetWhiteningSeed( 0x01FF );
 805:Drivers/sx126x/radio/sx126x/radio.c ****             break;
ARM GAS  C:\Users\andywei\AppData\Local\Temp\ccCe1C2z.s 			page 17


 806:Drivers/sx126x/radio/sx126x/radio.c **** 
 807:Drivers/sx126x/radio/sx126x/radio.c ****         case MODEM_LORA:
 808:Drivers/sx126x/radio/sx126x/radio.c ****             SX126x.ModulationParams.PacketType = PACKET_TYPE_LORA;
 809:Drivers/sx126x/radio/sx126x/radio.c ****             SX126x.ModulationParams.Params.LoRa.SpreadingFactor = ( RadioLoRaSpreadingFactors_t ) d
 810:Drivers/sx126x/radio/sx126x/radio.c ****             SX126x.ModulationParams.Params.LoRa.Bandwidth =  Bandwidths[bandwidth];
 811:Drivers/sx126x/radio/sx126x/radio.c ****             SX126x.ModulationParams.Params.LoRa.CodingRate= ( RadioLoRaCodingRates_t )coderate;
 812:Drivers/sx126x/radio/sx126x/radio.c **** 
 813:Drivers/sx126x/radio/sx126x/radio.c ****             if( ( ( bandwidth == 0 ) && ( ( datarate == 11 ) || ( datarate == 12 ) ) ) ||
 814:Drivers/sx126x/radio/sx126x/radio.c ****             ( ( bandwidth == 1 ) && ( datarate == 12 ) ) )
 815:Drivers/sx126x/radio/sx126x/radio.c ****             {
 816:Drivers/sx126x/radio/sx126x/radio.c ****                 SX126x.ModulationParams.Params.LoRa.LowDatarateOptimize = 0x01;
 817:Drivers/sx126x/radio/sx126x/radio.c ****             }
 818:Drivers/sx126x/radio/sx126x/radio.c ****             else
 819:Drivers/sx126x/radio/sx126x/radio.c ****             {
 820:Drivers/sx126x/radio/sx126x/radio.c ****                 SX126x.ModulationParams.Params.LoRa.LowDatarateOptimize = 0x00;
 821:Drivers/sx126x/radio/sx126x/radio.c ****             }
 822:Drivers/sx126x/radio/sx126x/radio.c **** 
 823:Drivers/sx126x/radio/sx126x/radio.c ****             SX126x.PacketParams.PacketType = PACKET_TYPE_LORA;
 824:Drivers/sx126x/radio/sx126x/radio.c **** 
 825:Drivers/sx126x/radio/sx126x/radio.c ****             if( ( SX126x.ModulationParams.Params.LoRa.SpreadingFactor == LORA_SF5 ) ||
 826:Drivers/sx126x/radio/sx126x/radio.c ****                 ( SX126x.ModulationParams.Params.LoRa.SpreadingFactor == LORA_SF6 ) )
 827:Drivers/sx126x/radio/sx126x/radio.c ****             {
 828:Drivers/sx126x/radio/sx126x/radio.c ****                 if( preambleLen < 12 )
 829:Drivers/sx126x/radio/sx126x/radio.c ****                 {
 830:Drivers/sx126x/radio/sx126x/radio.c ****                     SX126x.PacketParams.Params.LoRa.PreambleLength = 12;
 831:Drivers/sx126x/radio/sx126x/radio.c ****                 }
 832:Drivers/sx126x/radio/sx126x/radio.c ****                 else
 833:Drivers/sx126x/radio/sx126x/radio.c ****                 {
 834:Drivers/sx126x/radio/sx126x/radio.c ****                     SX126x.PacketParams.Params.LoRa.PreambleLength = preambleLen;
 835:Drivers/sx126x/radio/sx126x/radio.c ****                 }
 836:Drivers/sx126x/radio/sx126x/radio.c ****             }
 837:Drivers/sx126x/radio/sx126x/radio.c ****             else
 838:Drivers/sx126x/radio/sx126x/radio.c ****             {
 839:Drivers/sx126x/radio/sx126x/radio.c ****                 SX126x.PacketParams.Params.LoRa.PreambleLength = preambleLen;
 840:Drivers/sx126x/radio/sx126x/radio.c ****             }
 841:Drivers/sx126x/radio/sx126x/radio.c **** 
 842:Drivers/sx126x/radio/sx126x/radio.c ****             SX126x.PacketParams.Params.LoRa.HeaderType = ( RadioLoRaPacketLengthsMode_t )fixLen;
 843:Drivers/sx126x/radio/sx126x/radio.c ****             SX126x.PacketParams.Params.LoRa.PayloadLength = MaxPayloadLength;
 844:Drivers/sx126x/radio/sx126x/radio.c ****             SX126x.PacketParams.Params.LoRa.CrcMode = ( RadioLoRaCrcModes_t )crcOn;
 845:Drivers/sx126x/radio/sx126x/radio.c ****             SX126x.PacketParams.Params.LoRa.InvertIQ = ( RadioLoRaIQModes_t )iqInverted;
 846:Drivers/sx126x/radio/sx126x/radio.c **** 
 847:Drivers/sx126x/radio/sx126x/radio.c ****             RadioStandby( );
 848:Drivers/sx126x/radio/sx126x/radio.c ****             RadioSetModem( ( SX126x.ModulationParams.PacketType == PACKET_TYPE_GFSK ) ? MODEM_FSK :
 849:Drivers/sx126x/radio/sx126x/radio.c ****             SX126xSetModulationParams( &SX126x.ModulationParams );
 850:Drivers/sx126x/radio/sx126x/radio.c ****             SX126xSetPacketParams( &SX126x.PacketParams );
 851:Drivers/sx126x/radio/sx126x/radio.c ****             break;
 852:Drivers/sx126x/radio/sx126x/radio.c ****     }
 853:Drivers/sx126x/radio/sx126x/radio.c **** 
 854:Drivers/sx126x/radio/sx126x/radio.c ****     // WORKAROUND - Modulation Quality with 500 kHz LoRa Bandwidth, see DS_SX1261-2_V1.2 datasheet 
 855:Drivers/sx126x/radio/sx126x/radio.c ****     if( ( modem == MODEM_LORA ) && ( SX126x.ModulationParams.Params.LoRa.Bandwidth == LORA_BW_500 )
 856:Drivers/sx126x/radio/sx126x/radio.c ****     {
 857:Drivers/sx126x/radio/sx126x/radio.c ****         SX126xWriteRegister( REG_TX_MODULATION, SX126xReadRegister( REG_TX_MODULATION ) & ~( 1 << 2
 858:Drivers/sx126x/radio/sx126x/radio.c ****     }
 859:Drivers/sx126x/radio/sx126x/radio.c ****     else
 860:Drivers/sx126x/radio/sx126x/radio.c ****     {
 861:Drivers/sx126x/radio/sx126x/radio.c ****         SX126xWriteRegister( REG_TX_MODULATION, SX126xReadRegister( REG_TX_MODULATION ) | ( 1 << 2 
 862:Drivers/sx126x/radio/sx126x/radio.c ****     }
ARM GAS  C:\Users\andywei\AppData\Local\Temp\ccCe1C2z.s 			page 18


 863:Drivers/sx126x/radio/sx126x/radio.c ****     // WORKAROUND END
 864:Drivers/sx126x/radio/sx126x/radio.c **** 
 865:Drivers/sx126x/radio/sx126x/radio.c ****     SX126xSetRfTxPower( power );
 866:Drivers/sx126x/radio/sx126x/radio.c ****     TxTimeout = timeout;
 867:Drivers/sx126x/radio/sx126x/radio.c **** }
 868:Drivers/sx126x/radio/sx126x/radio.c **** 
 869:Drivers/sx126x/radio/sx126x/radio.c **** bool RadioCheckRfFrequency( uint32_t frequency )
 870:Drivers/sx126x/radio/sx126x/radio.c **** {
 110              		.loc 1 870 1 is_stmt 1 view -0
 111              		.cfi_startproc
 112              		@ args = 0, pretend = 0, frame = 0
 113              		@ frame_needed = 0, uses_anonymous_args = 0
 114              		@ link register save eliminated.
 871:Drivers/sx126x/radio/sx126x/radio.c ****     return true;
 115              		.loc 1 871 5 view .LVU25
 872:Drivers/sx126x/radio/sx126x/radio.c **** }
 116              		.loc 1 872 1 is_stmt 0 view .LVU26
 117 0000 0120     		movs	r0, #1
 118              	.LVL9:
 119              		.loc 1 872 1 view .LVU27
 120 0002 7047     		bx	lr
 121              		.cfi_endproc
 122              	.LFE9:
 124              		.section	.text.RadioGetLoRaBandwidthInHz,"ax",%progbits
 125              		.align	1
 126              		.syntax unified
 127              		.thumb
 128              		.thumb_func
 129              		.fpu fpv4-sp-d16
 131              	RadioGetLoRaBandwidthInHz:
 132              	.LVL10:
 133              	.LFB10:
 873:Drivers/sx126x/radio/sx126x/radio.c **** 
 874:Drivers/sx126x/radio/sx126x/radio.c **** static uint32_t RadioGetLoRaBandwidthInHz( RadioLoRaBandwidths_t bw )
 875:Drivers/sx126x/radio/sx126x/radio.c **** {
 134              		.loc 1 875 1 is_stmt 1 view -0
 135              		.cfi_startproc
 136              		@ args = 0, pretend = 0, frame = 0
 137              		@ frame_needed = 0, uses_anonymous_args = 0
 138              		@ link register save eliminated.
 876:Drivers/sx126x/radio/sx126x/radio.c ****     uint32_t bandwidthInHz = 0;
 139              		.loc 1 876 5 view .LVU29
 877:Drivers/sx126x/radio/sx126x/radio.c **** 
 878:Drivers/sx126x/radio/sx126x/radio.c ****     switch( bw )
 140              		.loc 1 878 5 view .LVU30
 141 0000 0A28     		cmp	r0, #10
 142 0002 07D8     		bhi	.L12
 143 0004 DFE800F0 		tbb	[pc, r0]
 144              	.L14:
 145 0008 20       		.byte	(.L24-.L14)/2
 146 0009 0B       		.byte	(.L22-.L14)/2
 147 000a 11       		.byte	(.L21-.L14)/2
 148 000b 17       		.byte	(.L20-.L14)/2
 149 000c 1A       		.byte	(.L19-.L14)/2
 150 000d 1C       		.byte	(.L18-.L14)/2
 151 000e 1E       		.byte	(.L17-.L14)/2
 152 000f 06       		.byte	(.L12-.L14)/2
ARM GAS  C:\Users\andywei\AppData\Local\Temp\ccCe1C2z.s 			page 19


 153 0010 08       		.byte	(.L16-.L14)/2
 154 0011 0E       		.byte	(.L15-.L14)/2
 155 0012 14       		.byte	(.L13-.L14)/2
 156 0013 00       		.p2align 1
 157              	.L12:
 879:Drivers/sx126x/radio/sx126x/radio.c ****     {
 880:Drivers/sx126x/radio/sx126x/radio.c ****     case LORA_BW_007:
 881:Drivers/sx126x/radio/sx126x/radio.c ****         bandwidthInHz = 7812UL;
 882:Drivers/sx126x/radio/sx126x/radio.c ****         break;
 883:Drivers/sx126x/radio/sx126x/radio.c ****     case LORA_BW_010:
 884:Drivers/sx126x/radio/sx126x/radio.c ****         bandwidthInHz = 10417UL;
 885:Drivers/sx126x/radio/sx126x/radio.c ****         break;
 886:Drivers/sx126x/radio/sx126x/radio.c ****     case LORA_BW_015:
 887:Drivers/sx126x/radio/sx126x/radio.c ****         bandwidthInHz = 15625UL;
 888:Drivers/sx126x/radio/sx126x/radio.c ****         break;
 889:Drivers/sx126x/radio/sx126x/radio.c ****     case LORA_BW_020:
 890:Drivers/sx126x/radio/sx126x/radio.c ****         bandwidthInHz = 20833UL;
 891:Drivers/sx126x/radio/sx126x/radio.c ****         break;
 892:Drivers/sx126x/radio/sx126x/radio.c ****     case LORA_BW_031:
 893:Drivers/sx126x/radio/sx126x/radio.c ****         bandwidthInHz = 31250UL;
 894:Drivers/sx126x/radio/sx126x/radio.c ****         break;
 895:Drivers/sx126x/radio/sx126x/radio.c ****     case LORA_BW_041:
 896:Drivers/sx126x/radio/sx126x/radio.c ****         bandwidthInHz = 41667UL;
 897:Drivers/sx126x/radio/sx126x/radio.c ****         break;
 898:Drivers/sx126x/radio/sx126x/radio.c ****     case LORA_BW_062:
 899:Drivers/sx126x/radio/sx126x/radio.c ****         bandwidthInHz = 62500UL;
 900:Drivers/sx126x/radio/sx126x/radio.c ****         break;
 901:Drivers/sx126x/radio/sx126x/radio.c ****     case LORA_BW_125:
 902:Drivers/sx126x/radio/sx126x/radio.c ****         bandwidthInHz = 125000UL;
 903:Drivers/sx126x/radio/sx126x/radio.c ****         break;
 904:Drivers/sx126x/radio/sx126x/radio.c ****     case LORA_BW_250:
 905:Drivers/sx126x/radio/sx126x/radio.c ****         bandwidthInHz = 250000UL;
 158              		.loc 1 905 23 is_stmt 0 view .LVU31
 159 0014 0020     		movs	r0, #0
 160              	.LVL11:
 161              		.loc 1 905 23 view .LVU32
 162 0016 7047     		bx	lr
 163              	.LVL12:
 164              	.L16:
 884:Drivers/sx126x/radio/sx126x/radio.c ****         break;
 165              		.loc 1 884 9 is_stmt 1 view .LVU33
 885:Drivers/sx126x/radio/sx126x/radio.c ****     case LORA_BW_015:
 166              		.loc 1 885 9 view .LVU34
 884:Drivers/sx126x/radio/sx126x/radio.c ****         break;
 167              		.loc 1 884 23 is_stmt 0 view .LVU35
 168 0018 42F6B100 		movw	r0, #10417
 169              	.LVL13:
 885:Drivers/sx126x/radio/sx126x/radio.c ****     case LORA_BW_015:
 170              		.loc 1 885 9 view .LVU36
 171 001c 7047     		bx	lr
 172              	.LVL14:
 173              	.L22:
 887:Drivers/sx126x/radio/sx126x/radio.c ****         break;
 174              		.loc 1 887 9 is_stmt 1 view .LVU37
 888:Drivers/sx126x/radio/sx126x/radio.c ****     case LORA_BW_020:
 175              		.loc 1 888 9 view .LVU38
 887:Drivers/sx126x/radio/sx126x/radio.c ****         break;
ARM GAS  C:\Users\andywei\AppData\Local\Temp\ccCe1C2z.s 			page 20


 176              		.loc 1 887 23 is_stmt 0 view .LVU39
 177 001e 43F60950 		movw	r0, #15625
 178              	.LVL15:
 888:Drivers/sx126x/radio/sx126x/radio.c ****     case LORA_BW_020:
 179              		.loc 1 888 9 view .LVU40
 180 0022 7047     		bx	lr
 181              	.LVL16:
 182              	.L15:
 890:Drivers/sx126x/radio/sx126x/radio.c ****         break;
 183              		.loc 1 890 9 is_stmt 1 view .LVU41
 891:Drivers/sx126x/radio/sx126x/radio.c ****     case LORA_BW_031:
 184              		.loc 1 891 9 view .LVU42
 890:Drivers/sx126x/radio/sx126x/radio.c ****         break;
 185              		.loc 1 890 23 is_stmt 0 view .LVU43
 186 0024 45F26110 		movw	r0, #20833
 187              	.LVL17:
 891:Drivers/sx126x/radio/sx126x/radio.c ****     case LORA_BW_031:
 188              		.loc 1 891 9 view .LVU44
 189 0028 7047     		bx	lr
 190              	.LVL18:
 191              	.L21:
 893:Drivers/sx126x/radio/sx126x/radio.c ****         break;
 192              		.loc 1 893 9 is_stmt 1 view .LVU45
 894:Drivers/sx126x/radio/sx126x/radio.c ****     case LORA_BW_041:
 193              		.loc 1 894 9 view .LVU46
 893:Drivers/sx126x/radio/sx126x/radio.c ****         break;
 194              		.loc 1 893 23 is_stmt 0 view .LVU47
 195 002a 47F61220 		movw	r0, #31250
 196              	.LVL19:
 894:Drivers/sx126x/radio/sx126x/radio.c ****     case LORA_BW_041:
 197              		.loc 1 894 9 view .LVU48
 198 002e 7047     		bx	lr
 199              	.LVL20:
 200              	.L13:
 896:Drivers/sx126x/radio/sx126x/radio.c ****         break;
 201              		.loc 1 896 9 is_stmt 1 view .LVU49
 897:Drivers/sx126x/radio/sx126x/radio.c ****     case LORA_BW_062:
 202              		.loc 1 897 9 view .LVU50
 896:Drivers/sx126x/radio/sx126x/radio.c ****         break;
 203              		.loc 1 896 23 is_stmt 0 view .LVU51
 204 0030 4AF2C320 		movw	r0, #41667
 205              	.LVL21:
 897:Drivers/sx126x/radio/sx126x/radio.c ****     case LORA_BW_062:
 206              		.loc 1 897 9 view .LVU52
 207 0034 7047     		bx	lr
 208              	.LVL22:
 209              	.L20:
 899:Drivers/sx126x/radio/sx126x/radio.c ****         break;
 210              		.loc 1 899 9 is_stmt 1 view .LVU53
 900:Drivers/sx126x/radio/sx126x/radio.c ****     case LORA_BW_125:
 211              		.loc 1 900 9 view .LVU54
 899:Drivers/sx126x/radio/sx126x/radio.c ****         break;
 212              		.loc 1 899 23 is_stmt 0 view .LVU55
 213 0036 4FF22440 		movw	r0, #62500
 214              	.LVL23:
 900:Drivers/sx126x/radio/sx126x/radio.c ****     case LORA_BW_125:
 215              		.loc 1 900 9 view .LVU56
ARM GAS  C:\Users\andywei\AppData\Local\Temp\ccCe1C2z.s 			page 21


 216 003a 7047     		bx	lr
 217              	.LVL24:
 218              	.L19:
 902:Drivers/sx126x/radio/sx126x/radio.c ****         break;
 219              		.loc 1 902 9 is_stmt 1 view .LVU57
 903:Drivers/sx126x/radio/sx126x/radio.c ****     case LORA_BW_250:
 220              		.loc 1 903 9 view .LVU58
 902:Drivers/sx126x/radio/sx126x/radio.c ****         break;
 221              		.loc 1 902 23 is_stmt 0 view .LVU59
 222 003c 0448     		ldr	r0, .L25
 223              	.LVL25:
 903:Drivers/sx126x/radio/sx126x/radio.c ****     case LORA_BW_250:
 224              		.loc 1 903 9 view .LVU60
 225 003e 7047     		bx	lr
 226              	.LVL26:
 227              	.L18:
 228              		.loc 1 905 9 is_stmt 1 view .LVU61
 906:Drivers/sx126x/radio/sx126x/radio.c ****         break;
 229              		.loc 1 906 9 view .LVU62
 905:Drivers/sx126x/radio/sx126x/radio.c ****         break;
 230              		.loc 1 905 23 is_stmt 0 view .LVU63
 231 0040 0448     		ldr	r0, .L25+4
 232              	.LVL27:
 233              		.loc 1 906 9 view .LVU64
 234 0042 7047     		bx	lr
 235              	.LVL28:
 236              	.L17:
 907:Drivers/sx126x/radio/sx126x/radio.c ****     case LORA_BW_500:
 908:Drivers/sx126x/radio/sx126x/radio.c ****         bandwidthInHz = 500000UL;
 237              		.loc 1 908 9 is_stmt 1 view .LVU65
 909:Drivers/sx126x/radio/sx126x/radio.c ****         break;
 238              		.loc 1 909 9 view .LVU66
 908:Drivers/sx126x/radio/sx126x/radio.c ****         break;
 239              		.loc 1 908 23 is_stmt 0 view .LVU67
 240 0044 0448     		ldr	r0, .L25+8
 241              	.LVL29:
 242              		.loc 1 909 9 view .LVU68
 243 0046 7047     		bx	lr
 244              	.LVL30:
 245              	.L24:
 881:Drivers/sx126x/radio/sx126x/radio.c ****         break;
 246              		.loc 1 881 23 view .LVU69
 247 0048 41F68460 		movw	r0, #7812
 248              	.LVL31:
 910:Drivers/sx126x/radio/sx126x/radio.c ****     }
 911:Drivers/sx126x/radio/sx126x/radio.c **** 
 912:Drivers/sx126x/radio/sx126x/radio.c ****     return bandwidthInHz;
 249              		.loc 1 912 5 is_stmt 1 view .LVU70
 913:Drivers/sx126x/radio/sx126x/radio.c **** }
 250              		.loc 1 913 1 is_stmt 0 view .LVU71
 251 004c 7047     		bx	lr
 252              	.L26:
 253 004e 00BF     		.align	2
 254              	.L25:
 255 0050 48E80100 		.word	125000
 256 0054 90D00300 		.word	250000
 257 0058 20A10700 		.word	500000
ARM GAS  C:\Users\andywei\AppData\Local\Temp\ccCe1C2z.s 			page 22


 258              		.cfi_endproc
 259              	.LFE10:
 261              		.section	.text.RadioGetGfskTimeOnAirNumerator,"ax",%progbits
 262              		.align	1
 263              		.syntax unified
 264              		.thumb
 265              		.thumb_func
 266              		.fpu fpv4-sp-d16
 268              	RadioGetGfskTimeOnAirNumerator:
 269              	.LVL32:
 270              	.LFB11:
 914:Drivers/sx126x/radio/sx126x/radio.c **** 
 915:Drivers/sx126x/radio/sx126x/radio.c **** static uint32_t RadioGetGfskTimeOnAirNumerator( uint32_t datarate, uint8_t coderate,
 916:Drivers/sx126x/radio/sx126x/radio.c ****                               uint16_t preambleLen, bool fixLen, uint8_t payloadLen,
 917:Drivers/sx126x/radio/sx126x/radio.c ****                               bool crcOn )
 918:Drivers/sx126x/radio/sx126x/radio.c **** {
 271              		.loc 1 918 1 is_stmt 1 view -0
 272              		.cfi_startproc
 273              		@ args = 8, pretend = 0, frame = 0
 274              		@ frame_needed = 0, uses_anonymous_args = 0
 275              		@ link register save eliminated.
 276              		.loc 1 918 1 is_stmt 0 view .LVU73
 277 0000 9DF80410 		ldrb	r1, [sp, #4]	@ zero_extendqisi2
 278              	.LVL33:
 919:Drivers/sx126x/radio/sx126x/radio.c ****     const RadioAddressComp_t addrComp = RADIO_ADDRESSCOMP_FILT_OFF;
 279              		.loc 1 919 5 is_stmt 1 view .LVU74
 920:Drivers/sx126x/radio/sx126x/radio.c ****     const uint8_t syncWordLength = 3;
 280              		.loc 1 920 5 view .LVU75
 921:Drivers/sx126x/radio/sx126x/radio.c **** 
 922:Drivers/sx126x/radio/sx126x/radio.c ****     return ( preambleLen << 3 ) +
 281              		.loc 1 922 5 view .LVU76
 282              		.loc 1 922 26 is_stmt 0 view .LVU77
 283 0004 D200     		lsls	r2, r2, #3
 284              	.LVL34:
 923:Drivers/sx126x/radio/sx126x/radio.c ****            ( ( fixLen == false ) ? 8 : 0 ) +
 285              		.loc 1 923 38 view .LVU78
 286 0006 53B9     		cbnz	r3, .L30
 287 0008 0820     		movs	r0, #8
 288              	.LVL35:
 289              	.L28:
 922:Drivers/sx126x/radio/sx126x/radio.c ****            ( ( fixLen == false ) ? 8 : 0 ) +
 290              		.loc 1 922 33 view .LVU79
 291 000a 0244     		add	r2, r2, r0
 292              		.loc 1 923 44 view .LVU80
 293 000c 1832     		adds	r2, r2, #24
 924:Drivers/sx126x/radio/sx126x/radio.c ****              ( syncWordLength << 3 ) +
 925:Drivers/sx126x/radio/sx126x/radio.c ****              ( ( payloadLen +
 926:Drivers/sx126x/radio/sx126x/radio.c ****                ( addrComp == RADIO_ADDRESSCOMP_FILT_OFF ? 0 : 1 ) +
 927:Drivers/sx126x/radio/sx126x/radio.c ****                ( ( crcOn == true ) ? 2 : 0 ) 
 294              		.loc 1 927 40 view .LVU81
 295 000e 41B1     		cbz	r1, .L31
 296 0010 0223     		movs	r3, #2
 297              	.LVL36:
 298              	.L29:
 926:Drivers/sx126x/radio/sx126x/radio.c ****                ( ( crcOn == true ) ? 2 : 0 ) 
 299              		.loc 1 926 67 view .LVU82
 300 0012 9DF80000 		ldrb	r0, [sp]	@ zero_extendqisi2
ARM GAS  C:\Users\andywei\AppData\Local\Temp\ccCe1C2z.s 			page 23


 301 0016 1844     		add	r0, r0, r3
 928:Drivers/sx126x/radio/sx126x/radio.c ****                ) << 3 
 929:Drivers/sx126x/radio/sx126x/radio.c ****              );
 930:Drivers/sx126x/radio/sx126x/radio.c **** }
 302              		.loc 1 930 1 view .LVU83
 303 0018 02EBC000 		add	r0, r2, r0, lsl #3
 304 001c 7047     		bx	lr
 305              	.LVL37:
 306              	.L30:
 923:Drivers/sx126x/radio/sx126x/radio.c ****              ( syncWordLength << 3 ) +
 307              		.loc 1 923 38 view .LVU84
 308 001e 0020     		movs	r0, #0
 309              	.LVL38:
 923:Drivers/sx126x/radio/sx126x/radio.c ****              ( syncWordLength << 3 ) +
 310              		.loc 1 923 38 view .LVU85
 311 0020 F3E7     		b	.L28
 312              	.L31:
 927:Drivers/sx126x/radio/sx126x/radio.c ****                ) << 3 
 313              		.loc 1 927 40 view .LVU86
 314 0022 0023     		movs	r3, #0
 315              	.LVL39:
 927:Drivers/sx126x/radio/sx126x/radio.c ****                ) << 3 
 316              		.loc 1 927 40 view .LVU87
 317 0024 F5E7     		b	.L29
 318              		.cfi_endproc
 319              	.LFE11:
 321              		.section	.text.RadioGetLoRaTimeOnAirNumerator,"ax",%progbits
 322              		.align	1
 323              		.syntax unified
 324              		.thumb
 325              		.thumb_func
 326              		.fpu fpv4-sp-d16
 328              	RadioGetLoRaTimeOnAirNumerator:
 329              	.LVL40:
 330              	.LFB12:
 931:Drivers/sx126x/radio/sx126x/radio.c **** 
 932:Drivers/sx126x/radio/sx126x/radio.c **** static uint32_t RadioGetLoRaTimeOnAirNumerator( uint32_t bandwidth,
 933:Drivers/sx126x/radio/sx126x/radio.c ****                               uint32_t datarate, uint8_t coderate,
 934:Drivers/sx126x/radio/sx126x/radio.c ****                               uint16_t preambleLen, bool fixLen, uint8_t payloadLen,
 935:Drivers/sx126x/radio/sx126x/radio.c ****                               bool crcOn )
 936:Drivers/sx126x/radio/sx126x/radio.c **** {
 331              		.loc 1 936 1 is_stmt 1 view -0
 332              		.cfi_startproc
 333              		@ args = 12, pretend = 0, frame = 0
 334              		@ frame_needed = 0, uses_anonymous_args = 0
 335              		.loc 1 936 1 is_stmt 0 view .LVU89
 336 0000 70B5     		push	{r4, r5, r6, lr}
 337              	.LCFI0:
 338              		.cfi_def_cfa_offset 16
 339              		.cfi_offset 4, -16
 340              		.cfi_offset 5, -12
 341              		.cfi_offset 6, -8
 342              		.cfi_offset 14, -4
 343 0002 9DF81040 		ldrb	r4, [sp, #16]	@ zero_extendqisi2
 344 0006 9DF81850 		ldrb	r5, [sp, #24]	@ zero_extendqisi2
 937:Drivers/sx126x/radio/sx126x/radio.c ****     int32_t crDenom           = coderate + 4;
 345              		.loc 1 937 5 is_stmt 1 view .LVU90
ARM GAS  C:\Users\andywei\AppData\Local\Temp\ccCe1C2z.s 			page 24


 346              		.loc 1 937 13 is_stmt 0 view .LVU91
 347 000a 0432     		adds	r2, r2, #4
 348              	.LVL41:
 938:Drivers/sx126x/radio/sx126x/radio.c ****     bool    lowDatareOptimize = false;
 349              		.loc 1 938 5 is_stmt 1 view .LVU92
 939:Drivers/sx126x/radio/sx126x/radio.c **** 
 940:Drivers/sx126x/radio/sx126x/radio.c ****     // Ensure that the preamble length is at least 12 symbols when using SF5 or
 941:Drivers/sx126x/radio/sx126x/radio.c ****     // SF6
 942:Drivers/sx126x/radio/sx126x/radio.c ****     if( ( datarate == 5 ) || ( datarate == 6 ) )
 350              		.loc 1 942 5 view .LVU93
 351              		.loc 1 942 27 is_stmt 0 view .LVU94
 352 000c A1F1050C 		sub	ip, r1, #5
 353              		.loc 1 942 7 view .LVU95
 354 0010 BCF1010F 		cmp	ip, #1
 355 0014 32D9     		bls	.L51
 356              	.LVL42:
 357              	.L33:
 943:Drivers/sx126x/radio/sx126x/radio.c ****     {
 944:Drivers/sx126x/radio/sx126x/radio.c ****         if( preambleLen < 12 )
 945:Drivers/sx126x/radio/sx126x/radio.c ****         {
 946:Drivers/sx126x/radio/sx126x/radio.c ****             preambleLen = 12;
 947:Drivers/sx126x/radio/sx126x/radio.c ****         }
 948:Drivers/sx126x/radio/sx126x/radio.c ****     }
 949:Drivers/sx126x/radio/sx126x/radio.c **** 
 950:Drivers/sx126x/radio/sx126x/radio.c ****     if( ( ( bandwidth == 0 ) && ( ( datarate == 11 ) || ( datarate == 12 ) ) ) ||
 358              		.loc 1 950 5 is_stmt 1 view .LVU96
 359              		.loc 1 950 7 is_stmt 0 view .LVU97
 360 0016 18B9     		cbnz	r0, .L34
 361              		.loc 1 950 54 discriminator 1 view .LVU98
 362 0018 A1F10B06 		sub	r6, r1, #11
 363              		.loc 1 950 30 discriminator 1 view .LVU99
 364 001c 012E     		cmp	r6, #1
 365 001e 35D9     		bls	.L44
 366              	.L34:
 367              		.loc 1 950 80 discriminator 3 view .LVU100
 368 0020 0128     		cmp	r0, #1
 369 0022 2FD0     		beq	.L52
 938:Drivers/sx126x/radio/sx126x/radio.c **** 
 370              		.loc 1 938 13 view .LVU101
 371 0024 0026     		movs	r6, #0
 372              	.L35:
 373              	.LVL43:
 951:Drivers/sx126x/radio/sx126x/radio.c ****         ( ( bandwidth == 1 ) && ( datarate == 12 ) ) )
 952:Drivers/sx126x/radio/sx126x/radio.c ****     {
 953:Drivers/sx126x/radio/sx126x/radio.c ****         lowDatareOptimize = true;
 954:Drivers/sx126x/radio/sx126x/radio.c ****     }
 955:Drivers/sx126x/radio/sx126x/radio.c **** 
 956:Drivers/sx126x/radio/sx126x/radio.c ****     int32_t ceilDenominator;
 374              		.loc 1 956 5 is_stmt 1 view .LVU102
 957:Drivers/sx126x/radio/sx126x/radio.c ****     int32_t ceilNumerator = ( payloadLen << 3 ) +
 375              		.loc 1 957 5 view .LVU103
 376              		.loc 1 957 42 is_stmt 0 view .LVU104
 377 0026 9DF814E0 		ldrb	lr, [sp, #20]	@ zero_extendqisi2
 378 002a 4FEACE0E 		lsl	lr, lr, #3
 958:Drivers/sx126x/radio/sx126x/radio.c ****                             ( crcOn ? 16 : 0 ) -
 379              		.loc 1 958 42 view .LVU105
 380 002e 8DB3     		cbz	r5, .L47
ARM GAS  C:\Users\andywei\AppData\Local\Temp\ccCe1C2z.s 			page 25


 381 0030 4FF0100C 		mov	ip, #16
 382              	.L36:
 957:Drivers/sx126x/radio/sx126x/radio.c ****     int32_t ceilNumerator = ( payloadLen << 3 ) +
 383              		.loc 1 957 49 view .LVU106
 384 0034 E644     		add	lr, lr, ip
 959:Drivers/sx126x/radio/sx126x/radio.c ****                             ( 4 * datarate ) +
 385              		.loc 1 959 33 view .LVU107
 386 0036 8800     		lsls	r0, r1, #2
 387              	.LVL44:
 958:Drivers/sx126x/radio/sx126x/radio.c ****                             ( crcOn ? 16 : 0 ) -
 388              		.loc 1 958 48 view .LVU108
 389 0038 AEEB810E 		sub	lr, lr, r1, lsl #2
 960:Drivers/sx126x/radio/sx126x/radio.c ****                             ( fixLen ? 0 : 20 );
 390              		.loc 1 960 42 view .LVU109
 391 003c 6CB3     		cbz	r4, .L48
 392 003e 4FF0000C 		mov	ip, #0
 393              	.L37:
 959:Drivers/sx126x/radio/sx126x/radio.c ****                             ( 4 * datarate ) +
 394              		.loc 1 959 46 view .LVU110
 395 0042 F444     		add	ip, ip, lr
 396              	.LVL45:
 961:Drivers/sx126x/radio/sx126x/radio.c **** 
 962:Drivers/sx126x/radio/sx126x/radio.c ****     if( datarate <= 6 )
 397              		.loc 1 962 5 is_stmt 1 view .LVU111
 398              		.loc 1 962 7 is_stmt 0 view .LVU112
 399 0044 0629     		cmp	r1, #6
 400 0046 04D9     		bls	.L39
 963:Drivers/sx126x/radio/sx126x/radio.c ****     {
 964:Drivers/sx126x/radio/sx126x/radio.c ****         ceilDenominator = 4 * datarate;
 965:Drivers/sx126x/radio/sx126x/radio.c ****     }
 966:Drivers/sx126x/radio/sx126x/radio.c ****     else
 967:Drivers/sx126x/radio/sx126x/radio.c ****     {
 968:Drivers/sx126x/radio/sx126x/radio.c ****         ceilNumerator += 8;
 401              		.loc 1 968 9 is_stmt 1 view .LVU113
 402              		.loc 1 968 23 is_stmt 0 view .LVU114
 403 0048 0CF1080C 		add	ip, ip, #8
 404              	.LVL46:
 969:Drivers/sx126x/radio/sx126x/radio.c **** 
 970:Drivers/sx126x/radio/sx126x/radio.c ****         if( lowDatareOptimize == true )
 405              		.loc 1 970 9 is_stmt 1 view .LVU115
 406              		.loc 1 970 11 is_stmt 0 view .LVU116
 407 004c 0EB1     		cbz	r6, .L39
 971:Drivers/sx126x/radio/sx126x/radio.c ****         {
 972:Drivers/sx126x/radio/sx126x/radio.c ****             ceilDenominator = 4 * ( datarate - 2 );
 408              		.loc 1 972 13 is_stmt 1 view .LVU117
 409              		.loc 1 972 46 is_stmt 0 view .LVU118
 410 004e 881E     		subs	r0, r1, #2
 411              		.loc 1 972 33 view .LVU119
 412 0050 8000     		lsls	r0, r0, #2
 413              	.LVL47:
 414              	.L39:
 973:Drivers/sx126x/radio/sx126x/radio.c ****         }
 974:Drivers/sx126x/radio/sx126x/radio.c ****         else
 975:Drivers/sx126x/radio/sx126x/radio.c ****         {
 976:Drivers/sx126x/radio/sx126x/radio.c ****             ceilDenominator = 4 * datarate;
 977:Drivers/sx126x/radio/sx126x/radio.c ****         }
 978:Drivers/sx126x/radio/sx126x/radio.c ****     }
ARM GAS  C:\Users\andywei\AppData\Local\Temp\ccCe1C2z.s 			page 26


 979:Drivers/sx126x/radio/sx126x/radio.c **** 
 980:Drivers/sx126x/radio/sx126x/radio.c ****     if( ceilNumerator < 0 )
 415              		.loc 1 980 5 is_stmt 1 view .LVU120
 416              		.loc 1 980 7 is_stmt 0 view .LVU121
 417 0052 BCF1000F 		cmp	ip, #0
 418 0056 23DB     		blt	.L53
 419              	.LVL48:
 420              	.L41:
 981:Drivers/sx126x/radio/sx126x/radio.c ****     {
 982:Drivers/sx126x/radio/sx126x/radio.c ****         ceilNumerator = 0;
 983:Drivers/sx126x/radio/sx126x/radio.c ****     }
 984:Drivers/sx126x/radio/sx126x/radio.c **** 
 985:Drivers/sx126x/radio/sx126x/radio.c ****     // Perform integral ceil()
 986:Drivers/sx126x/radio/sx126x/radio.c ****     int32_t intermediate =
 421              		.loc 1 986 5 is_stmt 1 view .LVU122
 987:Drivers/sx126x/radio/sx126x/radio.c ****         ( ( ceilNumerator + ceilDenominator - 1 ) / ceilDenominator ) * crDenom + preambleLen + 12;
 422              		.loc 1 987 27 is_stmt 0 view .LVU123
 423 0058 8444     		add	ip, ip, r0
 424              	.LVL49:
 425              		.loc 1 987 45 view .LVU124
 426 005a 0CF1FF3C 		add	ip, ip, #-1
 427              		.loc 1 987 51 view .LVU125
 428 005e 9CFBF0FC 		sdiv	ip, ip, r0
 429              		.loc 1 987 81 view .LVU126
 430 0062 02FB0C33 		mla	r3, r2, ip, r3
 431              	.LVL50:
 986:Drivers/sx126x/radio/sx126x/radio.c ****         ( ( ceilNumerator + ceilDenominator - 1 ) / ceilDenominator ) * crDenom + preambleLen + 12;
 432              		.loc 1 986 13 view .LVU127
 433 0066 03F10C00 		add	r0, r3, #12
 434              	.LVL51:
 988:Drivers/sx126x/radio/sx126x/radio.c **** 
 989:Drivers/sx126x/radio/sx126x/radio.c ****     if( datarate <= 6 )
 435              		.loc 1 989 5 is_stmt 1 view .LVU128
 436              		.loc 1 989 7 is_stmt 0 view .LVU129
 437 006a 0629     		cmp	r1, #6
 438 006c 01D8     		bhi	.L42
 990:Drivers/sx126x/radio/sx126x/radio.c ****     {
 991:Drivers/sx126x/radio/sx126x/radio.c ****         intermediate += 2;
 439              		.loc 1 991 9 is_stmt 1 view .LVU130
 440              		.loc 1 991 22 is_stmt 0 view .LVU131
 441 006e 03F10E00 		add	r0, r3, #14
 442              	.LVL52:
 443              	.L42:
 992:Drivers/sx126x/radio/sx126x/radio.c ****     }
 993:Drivers/sx126x/radio/sx126x/radio.c **** 
 994:Drivers/sx126x/radio/sx126x/radio.c ****     return ( uint32_t )( ( 4 * intermediate + 1 ) * ( 1 << ( datarate - 2 ) ) );
 444              		.loc 1 994 5 is_stmt 1 view .LVU132
 445              		.loc 1 994 30 is_stmt 0 view .LVU133
 446 0072 8000     		lsls	r0, r0, #2
 447              	.LVL53:
 448              		.loc 1 994 45 view .LVU134
 449 0074 0130     		adds	r0, r0, #1
 450              		.loc 1 994 71 view .LVU135
 451 0076 0239     		subs	r1, r1, #2
 452              	.LVL54:
 995:Drivers/sx126x/radio/sx126x/radio.c **** }
 453              		.loc 1 995 1 view .LVU136
ARM GAS  C:\Users\andywei\AppData\Local\Temp\ccCe1C2z.s 			page 27


 454 0078 8840     		lsls	r0, r0, r1
 455 007a 70BD     		pop	{r4, r5, r6, pc}
 456              	.LVL55:
 457              	.L51:
 944:Drivers/sx126x/radio/sx126x/radio.c ****         {
 458              		.loc 1 944 9 is_stmt 1 view .LVU137
 944:Drivers/sx126x/radio/sx126x/radio.c ****         {
 459              		.loc 1 944 11 is_stmt 0 view .LVU138
 460 007c 0B2B     		cmp	r3, #11
 461 007e CAD8     		bhi	.L33
 946:Drivers/sx126x/radio/sx126x/radio.c ****         }
 462              		.loc 1 946 25 view .LVU139
 463 0080 0C23     		movs	r3, #12
 464              	.LVL56:
 946:Drivers/sx126x/radio/sx126x/radio.c ****         }
 465              		.loc 1 946 25 view .LVU140
 466 0082 C8E7     		b	.L33
 467              	.LVL57:
 468              	.L52:
 951:Drivers/sx126x/radio/sx126x/radio.c ****     {
 469              		.loc 1 951 30 view .LVU141
 470 0084 0C29     		cmp	r1, #12
 471 0086 03D0     		beq	.L46
 938:Drivers/sx126x/radio/sx126x/radio.c **** 
 472              		.loc 1 938 13 view .LVU142
 473 0088 0026     		movs	r6, #0
 474 008a CCE7     		b	.L35
 475              	.L44:
 953:Drivers/sx126x/radio/sx126x/radio.c ****     }
 476              		.loc 1 953 27 view .LVU143
 477 008c 0126     		movs	r6, #1
 478 008e CAE7     		b	.L35
 479              	.L46:
 953:Drivers/sx126x/radio/sx126x/radio.c ****     }
 480              		.loc 1 953 27 view .LVU144
 481 0090 0126     		movs	r6, #1
 482 0092 C8E7     		b	.L35
 483              	.LVL58:
 484              	.L47:
 958:Drivers/sx126x/radio/sx126x/radio.c ****                             ( 4 * datarate ) +
 485              		.loc 1 958 42 view .LVU145
 486 0094 4FF0000C 		mov	ip, #0
 487 0098 CCE7     		b	.L36
 488              	.LVL59:
 489              	.L48:
 960:Drivers/sx126x/radio/sx126x/radio.c **** 
 490              		.loc 1 960 42 view .LVU146
 491 009a 4FF0140C 		mov	ip, #20
 492 009e D0E7     		b	.L37
 493              	.LVL60:
 494              	.L53:
 982:Drivers/sx126x/radio/sx126x/radio.c ****     }
 495              		.loc 1 982 23 view .LVU147
 496 00a0 4FF0000C 		mov	ip, #0
 497              	.LVL61:
 982:Drivers/sx126x/radio/sx126x/radio.c ****     }
 498              		.loc 1 982 23 view .LVU148
ARM GAS  C:\Users\andywei\AppData\Local\Temp\ccCe1C2z.s 			page 28


 499 00a4 D8E7     		b	.L41
 500              		.cfi_endproc
 501              	.LFE12:
 503              		.section	.text.RadioTimeOnAir,"ax",%progbits
 504              		.align	1
 505              		.global	RadioTimeOnAir
 506              		.syntax unified
 507              		.thumb
 508              		.thumb_func
 509              		.fpu fpv4-sp-d16
 511              	RadioTimeOnAir:
 512              	.LVL62:
 513              	.LFB13:
 996:Drivers/sx126x/radio/sx126x/radio.c **** 
 997:Drivers/sx126x/radio/sx126x/radio.c **** uint32_t RadioTimeOnAir( RadioModems_t modem, uint32_t bandwidth,
 998:Drivers/sx126x/radio/sx126x/radio.c ****                               uint32_t datarate, uint8_t coderate,
 999:Drivers/sx126x/radio/sx126x/radio.c ****                               uint16_t preambleLen, bool fixLen, uint8_t payloadLen,
1000:Drivers/sx126x/radio/sx126x/radio.c ****                               bool crcOn )
1001:Drivers/sx126x/radio/sx126x/radio.c **** {
 514              		.loc 1 1001 1 is_stmt 1 view -0
 515              		.cfi_startproc
 516              		@ args = 16, pretend = 0, frame = 0
 517              		@ frame_needed = 0, uses_anonymous_args = 0
 518              		.loc 1 1001 1 is_stmt 0 view .LVU150
 519 0000 F0B5     		push	{r4, r5, r6, r7, lr}
 520              	.LCFI1:
 521              		.cfi_def_cfa_offset 20
 522              		.cfi_offset 4, -20
 523              		.cfi_offset 5, -16
 524              		.cfi_offset 6, -12
 525              		.cfi_offset 7, -8
 526              		.cfi_offset 14, -4
 527 0002 85B0     		sub	sp, sp, #20
 528              	.LCFI2:
 529              		.cfi_def_cfa_offset 40
 530 0004 0E46     		mov	r6, r1
 531 0006 1546     		mov	r5, r2
 532 0008 1946     		mov	r1, r3
 533              	.LVL63:
 534              		.loc 1 1001 1 view .LVU151
 535 000a BDF82820 		ldrh	r2, [sp, #40]
 536              	.LVL64:
 537              		.loc 1 1001 1 view .LVU152
 538 000e 9DF82C30 		ldrb	r3, [sp, #44]	@ zero_extendqisi2
 539              	.LVL65:
 540              		.loc 1 1001 1 view .LVU153
 541 0012 9DF83070 		ldrb	r7, [sp, #48]	@ zero_extendqisi2
 542 0016 9DF834C0 		ldrb	ip, [sp, #52]	@ zero_extendqisi2
1002:Drivers/sx126x/radio/sx126x/radio.c ****     uint32_t numerator = 0;
 543              		.loc 1 1002 5 is_stmt 1 view .LVU154
 544              	.LVL66:
1003:Drivers/sx126x/radio/sx126x/radio.c ****     uint32_t denominator = 1;
 545              		.loc 1 1003 5 view .LVU155
1004:Drivers/sx126x/radio/sx126x/radio.c **** 
1005:Drivers/sx126x/radio/sx126x/radio.c ****     switch( modem )
 546              		.loc 1 1005 5 view .LVU156
 547 001a 48B1     		cbz	r0, .L55
ARM GAS  C:\Users\andywei\AppData\Local\Temp\ccCe1C2z.s 			page 29


 548 001c 0128     		cmp	r0, #1
 549 001e 12D0     		beq	.L56
 550 0020 0125     		movs	r5, #1
 551              	.LVL67:
 552              		.loc 1 1005 5 is_stmt 0 view .LVU157
 553 0022 0024     		movs	r4, #0
 554              	.LVL68:
 555              	.L57:
1006:Drivers/sx126x/radio/sx126x/radio.c ****     {
1007:Drivers/sx126x/radio/sx126x/radio.c ****     case MODEM_FSK:
1008:Drivers/sx126x/radio/sx126x/radio.c ****         {
1009:Drivers/sx126x/radio/sx126x/radio.c ****             numerator   = 1000U * RadioGetGfskTimeOnAirNumerator( datarate, coderate,
1010:Drivers/sx126x/radio/sx126x/radio.c ****                                                                   preambleLen, fixLen,
1011:Drivers/sx126x/radio/sx126x/radio.c ****                                                                   payloadLen, crcOn );
1012:Drivers/sx126x/radio/sx126x/radio.c ****             denominator = datarate;
1013:Drivers/sx126x/radio/sx126x/radio.c ****         }
1014:Drivers/sx126x/radio/sx126x/radio.c ****         break;
1015:Drivers/sx126x/radio/sx126x/radio.c ****     case MODEM_LORA:
1016:Drivers/sx126x/radio/sx126x/radio.c ****         {
1017:Drivers/sx126x/radio/sx126x/radio.c ****             numerator   = 1000U * RadioGetLoRaTimeOnAirNumerator( bandwidth, datarate,
1018:Drivers/sx126x/radio/sx126x/radio.c ****                                                                   coderate, preambleLen,
1019:Drivers/sx126x/radio/sx126x/radio.c ****                                                                   fixLen, payloadLen, crcOn );
1020:Drivers/sx126x/radio/sx126x/radio.c ****             denominator = RadioGetLoRaBandwidthInHz( Bandwidths[bandwidth] );
1021:Drivers/sx126x/radio/sx126x/radio.c ****         }
1022:Drivers/sx126x/radio/sx126x/radio.c ****         break;
1023:Drivers/sx126x/radio/sx126x/radio.c ****     }
1024:Drivers/sx126x/radio/sx126x/radio.c ****     // Perform integral ceil()
1025:Drivers/sx126x/radio/sx126x/radio.c ****     return ( numerator + denominator - 1 ) / denominator;
 556              		.loc 1 1025 5 is_stmt 1 view .LVU158
 557              		.loc 1 1025 24 is_stmt 0 view .LVU159
 558 0024 2C44     		add	r4, r4, r5
 559              	.LVL69:
 560              		.loc 1 1025 38 view .LVU160
 561 0026 601E     		subs	r0, r4, #1
1026:Drivers/sx126x/radio/sx126x/radio.c **** }
 562              		.loc 1 1026 1 view .LVU161
 563 0028 B0FBF5F0 		udiv	r0, r0, r5
 564 002c 05B0     		add	sp, sp, #20
 565              	.LCFI3:
 566              		.cfi_remember_state
 567              		.cfi_def_cfa_offset 20
 568              		@ sp needed
 569 002e F0BD     		pop	{r4, r5, r6, r7, pc}
 570              	.LVL70:
 571              	.L55:
 572              	.LCFI4:
 573              		.cfi_restore_state
1009:Drivers/sx126x/radio/sx126x/radio.c ****                                                                   preambleLen, fixLen,
 574              		.loc 1 1009 13 is_stmt 1 view .LVU162
1009:Drivers/sx126x/radio/sx126x/radio.c ****                                                                   preambleLen, fixLen,
 575              		.loc 1 1009 35 is_stmt 0 view .LVU163
 576 0030 CDF804C0 		str	ip, [sp, #4]
 577 0034 0097     		str	r7, [sp]
 578 0036 2846     		mov	r0, r5
 579              	.LVL71:
1009:Drivers/sx126x/radio/sx126x/radio.c ****                                                                   preambleLen, fixLen,
 580              		.loc 1 1009 35 view .LVU164
ARM GAS  C:\Users\andywei\AppData\Local\Temp\ccCe1C2z.s 			page 30


 581 0038 FFF7FEFF 		bl	RadioGetGfskTimeOnAirNumerator
 582              	.LVL72:
1009:Drivers/sx126x/radio/sx126x/radio.c ****                                                                   preambleLen, fixLen,
 583              		.loc 1 1009 25 view .LVU165
 584 003c 4FF47A74 		mov	r4, #1000
 585 0040 00FB04F4 		mul	r4, r0, r4
 586              	.LVL73:
1012:Drivers/sx126x/radio/sx126x/radio.c ****         }
 587              		.loc 1 1012 13 is_stmt 1 view .LVU166
1014:Drivers/sx126x/radio/sx126x/radio.c ****     case MODEM_LORA:
 588              		.loc 1 1014 9 view .LVU167
 589 0044 EEE7     		b	.L57
 590              	.LVL74:
 591              	.L56:
1017:Drivers/sx126x/radio/sx126x/radio.c ****                                                                   coderate, preambleLen,
 592              		.loc 1 1017 13 view .LVU168
1017:Drivers/sx126x/radio/sx126x/radio.c ****                                                                   coderate, preambleLen,
 593              		.loc 1 1017 35 is_stmt 0 view .LVU169
 594 0046 CDF808C0 		str	ip, [sp, #8]
 595 004a 0197     		str	r7, [sp, #4]
 596 004c 0093     		str	r3, [sp]
 597 004e 1346     		mov	r3, r2
 598 0050 0A46     		mov	r2, r1
 599 0052 2946     		mov	r1, r5
 600 0054 3046     		mov	r0, r6
 601              	.LVL75:
1017:Drivers/sx126x/radio/sx126x/radio.c ****                                                                   coderate, preambleLen,
 602              		.loc 1 1017 35 view .LVU170
 603 0056 FFF7FEFF 		bl	RadioGetLoRaTimeOnAirNumerator
 604              	.LVL76:
1017:Drivers/sx126x/radio/sx126x/radio.c ****                                                                   coderate, preambleLen,
 605              		.loc 1 1017 25 view .LVU171
 606 005a 4FF47A74 		mov	r4, #1000
 607 005e 00FB04F4 		mul	r4, r0, r4
 608              	.LVL77:
1020:Drivers/sx126x/radio/sx126x/radio.c ****         }
 609              		.loc 1 1020 13 is_stmt 1 view .LVU172
1020:Drivers/sx126x/radio/sx126x/radio.c ****         }
 610              		.loc 1 1020 27 is_stmt 0 view .LVU173
 611 0062 034B     		ldr	r3, .L59
 612 0064 985D     		ldrb	r0, [r3, r6]	@ zero_extendqisi2
 613 0066 FFF7FEFF 		bl	RadioGetLoRaBandwidthInHz
 614              	.LVL78:
 615 006a 0546     		mov	r5, r0
 616              	.LVL79:
1022:Drivers/sx126x/radio/sx126x/radio.c ****     }
 617              		.loc 1 1022 9 is_stmt 1 view .LVU174
 618 006c DAE7     		b	.L57
 619              	.L60:
 620 006e 00BF     		.align	2
 621              	.L59:
 622 0070 00000000 		.word	.LANCHOR1
 623              		.cfi_endproc
 624              	.LFE13:
 626              		.section	.text.RadioOnDioIrq,"ax",%progbits
 627              		.align	1
 628              		.global	RadioOnDioIrq
ARM GAS  C:\Users\andywei\AppData\Local\Temp\ccCe1C2z.s 			page 31


 629              		.syntax unified
 630              		.thumb
 631              		.thumb_func
 632              		.fpu fpv4-sp-d16
 634              	RadioOnDioIrq:
 635              	.LVL80:
 636              	.LFB33:
1027:Drivers/sx126x/radio/sx126x/radio.c **** 
1028:Drivers/sx126x/radio/sx126x/radio.c **** void RadioSend( uint8_t *buffer, uint8_t size )
1029:Drivers/sx126x/radio/sx126x/radio.c **** {
1030:Drivers/sx126x/radio/sx126x/radio.c ****     SX126xSetDioIrqParams( IRQ_TX_DONE | IRQ_RX_TX_TIMEOUT,
1031:Drivers/sx126x/radio/sx126x/radio.c ****                            IRQ_TX_DONE | IRQ_RX_TX_TIMEOUT,
1032:Drivers/sx126x/radio/sx126x/radio.c ****                            IRQ_RADIO_NONE,
1033:Drivers/sx126x/radio/sx126x/radio.c ****                            IRQ_RADIO_NONE );
1034:Drivers/sx126x/radio/sx126x/radio.c **** 
1035:Drivers/sx126x/radio/sx126x/radio.c ****     if( SX126xGetPacketType( ) == PACKET_TYPE_LORA )
1036:Drivers/sx126x/radio/sx126x/radio.c ****     {
1037:Drivers/sx126x/radio/sx126x/radio.c ****         SX126x.PacketParams.Params.LoRa.PayloadLength = size;
1038:Drivers/sx126x/radio/sx126x/radio.c ****     }
1039:Drivers/sx126x/radio/sx126x/radio.c ****     else
1040:Drivers/sx126x/radio/sx126x/radio.c ****     {
1041:Drivers/sx126x/radio/sx126x/radio.c ****         SX126x.PacketParams.Params.Gfsk.PayloadLength = size;
1042:Drivers/sx126x/radio/sx126x/radio.c ****     }
1043:Drivers/sx126x/radio/sx126x/radio.c ****     SX126xSetPacketParams( &SX126x.PacketParams );
1044:Drivers/sx126x/radio/sx126x/radio.c **** 
1045:Drivers/sx126x/radio/sx126x/radio.c ****     SX126xSendPayload( buffer, size, 0 );
1046:Drivers/sx126x/radio/sx126x/radio.c ****     // TimerSetValue( &TxTimeoutTimer, TxTimeout );
1047:Drivers/sx126x/radio/sx126x/radio.c ****     // TimerStart( &TxTimeoutTimer );
1048:Drivers/sx126x/radio/sx126x/radio.c **** }
1049:Drivers/sx126x/radio/sx126x/radio.c **** 
1050:Drivers/sx126x/radio/sx126x/radio.c **** void RadioSleep( void )
1051:Drivers/sx126x/radio/sx126x/radio.c **** {
1052:Drivers/sx126x/radio/sx126x/radio.c ****     SleepParams_t params = { 0 };
1053:Drivers/sx126x/radio/sx126x/radio.c **** 
1054:Drivers/sx126x/radio/sx126x/radio.c ****     params.Fields.WarmStart = 1;
1055:Drivers/sx126x/radio/sx126x/radio.c ****     SX126xSetSleep( params );
1056:Drivers/sx126x/radio/sx126x/radio.c **** 
1057:Drivers/sx126x/radio/sx126x/radio.c ****     DelayMs( 2 );
1058:Drivers/sx126x/radio/sx126x/radio.c **** }
1059:Drivers/sx126x/radio/sx126x/radio.c **** 
1060:Drivers/sx126x/radio/sx126x/radio.c **** void RadioStandby( void )
1061:Drivers/sx126x/radio/sx126x/radio.c **** {
1062:Drivers/sx126x/radio/sx126x/radio.c ****     SX126xSetStandby( STDBY_RC );
1063:Drivers/sx126x/radio/sx126x/radio.c **** }
1064:Drivers/sx126x/radio/sx126x/radio.c **** 
1065:Drivers/sx126x/radio/sx126x/radio.c **** void RadioRx( uint32_t timeout )
1066:Drivers/sx126x/radio/sx126x/radio.c **** {
1067:Drivers/sx126x/radio/sx126x/radio.c ****     SX126xSetDioIrqParams( IRQ_RADIO_ALL, //IRQ_RX_DONE | IRQ_RX_TX_TIMEOUT,
1068:Drivers/sx126x/radio/sx126x/radio.c ****                            IRQ_RADIO_ALL, //IRQ_RX_DONE | IRQ_RX_TX_TIMEOUT,
1069:Drivers/sx126x/radio/sx126x/radio.c ****                            IRQ_RADIO_NONE,
1070:Drivers/sx126x/radio/sx126x/radio.c ****                            IRQ_RADIO_NONE );
1071:Drivers/sx126x/radio/sx126x/radio.c **** 
1072:Drivers/sx126x/radio/sx126x/radio.c ****     if( timeout != 0 )
1073:Drivers/sx126x/radio/sx126x/radio.c ****     {
1074:Drivers/sx126x/radio/sx126x/radio.c ****         // TimerSetValue( &RxTimeoutTimer, timeout );
1075:Drivers/sx126x/radio/sx126x/radio.c ****         // TimerStart( &RxTimeoutTimer );
1076:Drivers/sx126x/radio/sx126x/radio.c ****     }
ARM GAS  C:\Users\andywei\AppData\Local\Temp\ccCe1C2z.s 			page 32


1077:Drivers/sx126x/radio/sx126x/radio.c **** 
1078:Drivers/sx126x/radio/sx126x/radio.c ****     if( RxContinuous == true )
1079:Drivers/sx126x/radio/sx126x/radio.c ****     {
1080:Drivers/sx126x/radio/sx126x/radio.c ****         SX126xSetRx( 0xFFFFFF ); // Rx Continuous
1081:Drivers/sx126x/radio/sx126x/radio.c ****     }
1082:Drivers/sx126x/radio/sx126x/radio.c ****     else
1083:Drivers/sx126x/radio/sx126x/radio.c ****     {
1084:Drivers/sx126x/radio/sx126x/radio.c ****         SX126xSetRx( RxTimeout << 6 );
1085:Drivers/sx126x/radio/sx126x/radio.c ****     }
1086:Drivers/sx126x/radio/sx126x/radio.c **** }
1087:Drivers/sx126x/radio/sx126x/radio.c **** 
1088:Drivers/sx126x/radio/sx126x/radio.c **** void RadioRxBoosted( uint32_t timeout )
1089:Drivers/sx126x/radio/sx126x/radio.c **** {
1090:Drivers/sx126x/radio/sx126x/radio.c ****     SX126xSetDioIrqParams( IRQ_RADIO_ALL, //IRQ_RX_DONE | IRQ_RX_TX_TIMEOUT,
1091:Drivers/sx126x/radio/sx126x/radio.c ****                            IRQ_RADIO_ALL, //IRQ_RX_DONE | IRQ_RX_TX_TIMEOUT,
1092:Drivers/sx126x/radio/sx126x/radio.c ****                            IRQ_RADIO_NONE,
1093:Drivers/sx126x/radio/sx126x/radio.c ****                            IRQ_RADIO_NONE );
1094:Drivers/sx126x/radio/sx126x/radio.c **** 
1095:Drivers/sx126x/radio/sx126x/radio.c ****     if( timeout != 0 )
1096:Drivers/sx126x/radio/sx126x/radio.c ****     {
1097:Drivers/sx126x/radio/sx126x/radio.c ****         // TimerSetValue( &RxTimeoutTimer, timeout );
1098:Drivers/sx126x/radio/sx126x/radio.c ****         // TimerStart( &RxTimeoutTimer );
1099:Drivers/sx126x/radio/sx126x/radio.c ****     }
1100:Drivers/sx126x/radio/sx126x/radio.c **** 
1101:Drivers/sx126x/radio/sx126x/radio.c ****     if( RxContinuous == true )
1102:Drivers/sx126x/radio/sx126x/radio.c ****     {
1103:Drivers/sx126x/radio/sx126x/radio.c ****         SX126xSetRxBoosted( 0xFFFFFF ); // Rx Continuous
1104:Drivers/sx126x/radio/sx126x/radio.c ****     }
1105:Drivers/sx126x/radio/sx126x/radio.c ****     else
1106:Drivers/sx126x/radio/sx126x/radio.c ****     {
1107:Drivers/sx126x/radio/sx126x/radio.c ****         SX126xSetRxBoosted( RxTimeout << 6 );
1108:Drivers/sx126x/radio/sx126x/radio.c ****     }
1109:Drivers/sx126x/radio/sx126x/radio.c **** }
1110:Drivers/sx126x/radio/sx126x/radio.c **** 
1111:Drivers/sx126x/radio/sx126x/radio.c **** void RadioSetRxDutyCycle( uint32_t rxTime, uint32_t sleepTime )
1112:Drivers/sx126x/radio/sx126x/radio.c **** {
1113:Drivers/sx126x/radio/sx126x/radio.c ****     SX126xSetRxDutyCycle( rxTime, sleepTime );
1114:Drivers/sx126x/radio/sx126x/radio.c **** }
1115:Drivers/sx126x/radio/sx126x/radio.c **** 
1116:Drivers/sx126x/radio/sx126x/radio.c **** void RadioAddRegisterToRetentionList( uint16_t registerAddress )
1117:Drivers/sx126x/radio/sx126x/radio.c **** {
1118:Drivers/sx126x/radio/sx126x/radio.c ****     uint8_t buffer[9];
1119:Drivers/sx126x/radio/sx126x/radio.c **** 
1120:Drivers/sx126x/radio/sx126x/radio.c ****     // Read the address and registers already added to the list
1121:Drivers/sx126x/radio/sx126x/radio.c ****     SX126xReadRegisters( REG_RETENTION_LIST_BASE_ADDRESS, buffer, 9 );
1122:Drivers/sx126x/radio/sx126x/radio.c **** 
1123:Drivers/sx126x/radio/sx126x/radio.c ****     const uint8_t nbOfRegisters = buffer[0];
1124:Drivers/sx126x/radio/sx126x/radio.c ****     uint8_t* registerList   = &buffer[1];
1125:Drivers/sx126x/radio/sx126x/radio.c **** 
1126:Drivers/sx126x/radio/sx126x/radio.c ****     // Check if the register given as parameter is already added to the list
1127:Drivers/sx126x/radio/sx126x/radio.c ****     for( uint8_t i = 0; i < nbOfRegisters; i++ )
1128:Drivers/sx126x/radio/sx126x/radio.c ****     {
1129:Drivers/sx126x/radio/sx126x/radio.c ****         if( registerAddress == ( ( uint16_t ) registerList[2 * i] << 8 ) + registerList[2 * i + 1] 
1130:Drivers/sx126x/radio/sx126x/radio.c ****         {
1131:Drivers/sx126x/radio/sx126x/radio.c ****             return;
1132:Drivers/sx126x/radio/sx126x/radio.c ****         }
1133:Drivers/sx126x/radio/sx126x/radio.c ****     }
ARM GAS  C:\Users\andywei\AppData\Local\Temp\ccCe1C2z.s 			page 33


1134:Drivers/sx126x/radio/sx126x/radio.c **** 
1135:Drivers/sx126x/radio/sx126x/radio.c ****     if( nbOfRegisters < MAX_NB_REG_IN_RETENTION )
1136:Drivers/sx126x/radio/sx126x/radio.c ****     {
1137:Drivers/sx126x/radio/sx126x/radio.c ****         buffer[0] += 1;
1138:Drivers/sx126x/radio/sx126x/radio.c ****         registerList[2 * nbOfRegisters]     = ( uint8_t )( registerAddress >> 8 );
1139:Drivers/sx126x/radio/sx126x/radio.c ****         registerList[2 * nbOfRegisters + 1] = ( uint8_t )( registerAddress >> 0 );
1140:Drivers/sx126x/radio/sx126x/radio.c **** 
1141:Drivers/sx126x/radio/sx126x/radio.c ****         // Update radio with modified list
1142:Drivers/sx126x/radio/sx126x/radio.c ****         SX126xWriteRegisters( REG_RETENTION_LIST_BASE_ADDRESS, buffer, 9 );
1143:Drivers/sx126x/radio/sx126x/radio.c ****     }
1144:Drivers/sx126x/radio/sx126x/radio.c **** }
1145:Drivers/sx126x/radio/sx126x/radio.c **** 
1146:Drivers/sx126x/radio/sx126x/radio.c **** void RadioStartCad( void )
1147:Drivers/sx126x/radio/sx126x/radio.c **** {
1148:Drivers/sx126x/radio/sx126x/radio.c ****     SX126xSetDioIrqParams( IRQ_CAD_DONE | IRQ_CAD_ACTIVITY_DETECTED, IRQ_CAD_DONE | IRQ_CAD_ACTIVIT
1149:Drivers/sx126x/radio/sx126x/radio.c ****     SX126xSetCad( );
1150:Drivers/sx126x/radio/sx126x/radio.c **** }
1151:Drivers/sx126x/radio/sx126x/radio.c **** 
1152:Drivers/sx126x/radio/sx126x/radio.c **** void RadioSetTxContinuousWave( uint32_t freq, int8_t power, uint16_t time )
1153:Drivers/sx126x/radio/sx126x/radio.c **** {
1154:Drivers/sx126x/radio/sx126x/radio.c ****     uint32_t timeout = ( uint32_t )time * 1000;
1155:Drivers/sx126x/radio/sx126x/radio.c **** 
1156:Drivers/sx126x/radio/sx126x/radio.c ****     SX126xSetRfFrequency( freq );
1157:Drivers/sx126x/radio/sx126x/radio.c ****     SX126xSetRfTxPower( power );
1158:Drivers/sx126x/radio/sx126x/radio.c ****     SX126xSetTxContinuousWave( );
1159:Drivers/sx126x/radio/sx126x/radio.c **** 
1160:Drivers/sx126x/radio/sx126x/radio.c ****     // TimerSetValue( &TxTimeoutTimer, timeout );
1161:Drivers/sx126x/radio/sx126x/radio.c ****     // TimerStart( &TxTimeoutTimer );
1162:Drivers/sx126x/radio/sx126x/radio.c **** }
1163:Drivers/sx126x/radio/sx126x/radio.c **** 
1164:Drivers/sx126x/radio/sx126x/radio.c **** int16_t RadioRssi( RadioModems_t modem )
1165:Drivers/sx126x/radio/sx126x/radio.c **** {
1166:Drivers/sx126x/radio/sx126x/radio.c ****     return SX126xGetRssiInst( );
1167:Drivers/sx126x/radio/sx126x/radio.c **** }
1168:Drivers/sx126x/radio/sx126x/radio.c **** 
1169:Drivers/sx126x/radio/sx126x/radio.c **** void RadioWrite( uint32_t addr, uint8_t data )
1170:Drivers/sx126x/radio/sx126x/radio.c **** {
1171:Drivers/sx126x/radio/sx126x/radio.c ****     SX126xWriteRegister( addr, data );
1172:Drivers/sx126x/radio/sx126x/radio.c **** }
1173:Drivers/sx126x/radio/sx126x/radio.c **** 
1174:Drivers/sx126x/radio/sx126x/radio.c **** uint8_t RadioRead( uint32_t addr )
1175:Drivers/sx126x/radio/sx126x/radio.c **** {
1176:Drivers/sx126x/radio/sx126x/radio.c ****     return SX126xReadRegister( addr );
1177:Drivers/sx126x/radio/sx126x/radio.c **** }
1178:Drivers/sx126x/radio/sx126x/radio.c **** 
1179:Drivers/sx126x/radio/sx126x/radio.c **** void RadioWriteBuffer( uint32_t addr, uint8_t *buffer, uint8_t size )
1180:Drivers/sx126x/radio/sx126x/radio.c **** {
1181:Drivers/sx126x/radio/sx126x/radio.c ****     SX126xWriteRegisters( addr, buffer, size );
1182:Drivers/sx126x/radio/sx126x/radio.c **** }
1183:Drivers/sx126x/radio/sx126x/radio.c **** 
1184:Drivers/sx126x/radio/sx126x/radio.c **** void RadioReadBuffer( uint32_t addr, uint8_t *buffer, uint8_t size )
1185:Drivers/sx126x/radio/sx126x/radio.c **** {
1186:Drivers/sx126x/radio/sx126x/radio.c ****     SX126xReadRegisters( addr, buffer, size );
1187:Drivers/sx126x/radio/sx126x/radio.c **** }
1188:Drivers/sx126x/radio/sx126x/radio.c **** 
1189:Drivers/sx126x/radio/sx126x/radio.c **** void RadioSetMaxPayloadLength( RadioModems_t modem, uint8_t max )
1190:Drivers/sx126x/radio/sx126x/radio.c **** {
ARM GAS  C:\Users\andywei\AppData\Local\Temp\ccCe1C2z.s 			page 34


1191:Drivers/sx126x/radio/sx126x/radio.c ****     if( modem == MODEM_LORA )
1192:Drivers/sx126x/radio/sx126x/radio.c ****     {
1193:Drivers/sx126x/radio/sx126x/radio.c ****         SX126x.PacketParams.Params.LoRa.PayloadLength = MaxPayloadLength = max;
1194:Drivers/sx126x/radio/sx126x/radio.c ****         SX126xSetPacketParams( &SX126x.PacketParams );
1195:Drivers/sx126x/radio/sx126x/radio.c ****     }
1196:Drivers/sx126x/radio/sx126x/radio.c ****     else
1197:Drivers/sx126x/radio/sx126x/radio.c ****     {
1198:Drivers/sx126x/radio/sx126x/radio.c ****         if( SX126x.PacketParams.Params.Gfsk.HeaderType == RADIO_PACKET_VARIABLE_LENGTH )
1199:Drivers/sx126x/radio/sx126x/radio.c ****         {
1200:Drivers/sx126x/radio/sx126x/radio.c ****             SX126x.PacketParams.Params.Gfsk.PayloadLength = MaxPayloadLength = max;
1201:Drivers/sx126x/radio/sx126x/radio.c ****             SX126xSetPacketParams( &SX126x.PacketParams );
1202:Drivers/sx126x/radio/sx126x/radio.c ****         }
1203:Drivers/sx126x/radio/sx126x/radio.c ****     }
1204:Drivers/sx126x/radio/sx126x/radio.c **** }
1205:Drivers/sx126x/radio/sx126x/radio.c **** 
1206:Drivers/sx126x/radio/sx126x/radio.c **** void RadioSetPublicNetwork( bool enable )
1207:Drivers/sx126x/radio/sx126x/radio.c **** {
1208:Drivers/sx126x/radio/sx126x/radio.c ****     RadioPublicNetwork.Current = RadioPublicNetwork.Previous = enable;
1209:Drivers/sx126x/radio/sx126x/radio.c **** 
1210:Drivers/sx126x/radio/sx126x/radio.c ****     RadioSetModem( MODEM_LORA );
1211:Drivers/sx126x/radio/sx126x/radio.c ****     if( enable == true )
1212:Drivers/sx126x/radio/sx126x/radio.c ****     {
1213:Drivers/sx126x/radio/sx126x/radio.c ****         // Change LoRa modem SyncWord
1214:Drivers/sx126x/radio/sx126x/radio.c ****         SX126xWriteRegister( REG_LR_SYNCWORD, ( LORA_MAC_PUBLIC_SYNCWORD >> 8 ) & 0xFF );
1215:Drivers/sx126x/radio/sx126x/radio.c ****         SX126xWriteRegister( REG_LR_SYNCWORD + 1, LORA_MAC_PUBLIC_SYNCWORD & 0xFF );
1216:Drivers/sx126x/radio/sx126x/radio.c ****     }
1217:Drivers/sx126x/radio/sx126x/radio.c ****     else
1218:Drivers/sx126x/radio/sx126x/radio.c ****     {
1219:Drivers/sx126x/radio/sx126x/radio.c ****         // Change LoRa modem SyncWord
1220:Drivers/sx126x/radio/sx126x/radio.c ****         SX126xWriteRegister( REG_LR_SYNCWORD, ( LORA_MAC_PRIVATE_SYNCWORD >> 8 ) & 0xFF );
1221:Drivers/sx126x/radio/sx126x/radio.c ****         SX126xWriteRegister( REG_LR_SYNCWORD + 1, LORA_MAC_PRIVATE_SYNCWORD & 0xFF );
1222:Drivers/sx126x/radio/sx126x/radio.c ****     }
1223:Drivers/sx126x/radio/sx126x/radio.c **** }
1224:Drivers/sx126x/radio/sx126x/radio.c **** 
1225:Drivers/sx126x/radio/sx126x/radio.c **** uint32_t RadioGetWakeupTime( void )
1226:Drivers/sx126x/radio/sx126x/radio.c **** {
1227:Drivers/sx126x/radio/sx126x/radio.c ****     return SX126xGetBoardTcxoWakeupTime( ) + RADIO_WAKEUP_TIME;
1228:Drivers/sx126x/radio/sx126x/radio.c **** }
1229:Drivers/sx126x/radio/sx126x/radio.c **** 
1230:Drivers/sx126x/radio/sx126x/radio.c **** void RadioOnTxTimeoutIrq( void* context )
1231:Drivers/sx126x/radio/sx126x/radio.c **** {
1232:Drivers/sx126x/radio/sx126x/radio.c ****     if( ( RadioEvents != NULL ) && ( RadioEvents->TxTimeout != NULL ) )
1233:Drivers/sx126x/radio/sx126x/radio.c ****     {
1234:Drivers/sx126x/radio/sx126x/radio.c ****         RadioEvents->TxTimeout( );
1235:Drivers/sx126x/radio/sx126x/radio.c ****     }
1236:Drivers/sx126x/radio/sx126x/radio.c **** }
1237:Drivers/sx126x/radio/sx126x/radio.c **** 
1238:Drivers/sx126x/radio/sx126x/radio.c **** void RadioOnRxTimeoutIrq( void* context )
1239:Drivers/sx126x/radio/sx126x/radio.c **** {
1240:Drivers/sx126x/radio/sx126x/radio.c ****     if( ( RadioEvents != NULL ) && ( RadioEvents->RxTimeout != NULL ) )
1241:Drivers/sx126x/radio/sx126x/radio.c ****     {
1242:Drivers/sx126x/radio/sx126x/radio.c ****         RadioEvents->RxTimeout( );
1243:Drivers/sx126x/radio/sx126x/radio.c ****     }
1244:Drivers/sx126x/radio/sx126x/radio.c **** }
1245:Drivers/sx126x/radio/sx126x/radio.c **** 
1246:Drivers/sx126x/radio/sx126x/radio.c **** void RadioOnDioIrq( void* context )
1247:Drivers/sx126x/radio/sx126x/radio.c **** {
ARM GAS  C:\Users\andywei\AppData\Local\Temp\ccCe1C2z.s 			page 35


 637              		.loc 1 1247 1 view -0
 638              		.cfi_startproc
 639              		@ args = 0, pretend = 0, frame = 0
 640              		@ frame_needed = 0, uses_anonymous_args = 0
 641              		@ link register save eliminated.
1248:Drivers/sx126x/radio/sx126x/radio.c ****     IrqFired = true;
 642              		.loc 1 1248 5 view .LVU176
 643              		.loc 1 1248 14 is_stmt 0 view .LVU177
 644 0000 014B     		ldr	r3, .L62
 645 0002 0122     		movs	r2, #1
 646 0004 1A70     		strb	r2, [r3]
1249:Drivers/sx126x/radio/sx126x/radio.c **** }
 647              		.loc 1 1249 1 view .LVU178
 648 0006 7047     		bx	lr
 649              	.L63:
 650              		.align	2
 651              	.L62:
 652 0008 00000000 		.word	.LANCHOR2
 653              		.cfi_endproc
 654              	.LFE33:
 656              		.section	.text.RadioStandby,"ax",%progbits
 657              		.align	1
 658              		.global	RadioStandby
 659              		.syntax unified
 660              		.thumb
 661              		.thumb_func
 662              		.fpu fpv4-sp-d16
 664              	RadioStandby:
 665              	.LFB16:
1061:Drivers/sx126x/radio/sx126x/radio.c ****     SX126xSetStandby( STDBY_RC );
 666              		.loc 1 1061 1 is_stmt 1 view -0
 667              		.cfi_startproc
 668              		@ args = 0, pretend = 0, frame = 0
 669              		@ frame_needed = 0, uses_anonymous_args = 0
 670 0000 08B5     		push	{r3, lr}
 671              	.LCFI5:
 672              		.cfi_def_cfa_offset 8
 673              		.cfi_offset 3, -8
 674              		.cfi_offset 14, -4
1062:Drivers/sx126x/radio/sx126x/radio.c **** }
 675              		.loc 1 1062 5 view .LVU180
 676 0002 0020     		movs	r0, #0
 677 0004 FFF7FEFF 		bl	SX126xSetStandby
 678              	.LVL81:
1063:Drivers/sx126x/radio/sx126x/radio.c **** 
 679              		.loc 1 1063 1 is_stmt 0 view .LVU181
 680 0008 08BD     		pop	{r3, pc}
 681              		.cfi_endproc
 682              	.LFE16:
 684              		.section	.text.RadioGetStatus,"ax",%progbits
 685              		.align	1
 686              		.global	RadioGetStatus
 687              		.syntax unified
 688              		.thumb
 689              		.thumb_func
 690              		.fpu fpv4-sp-d16
 692              	RadioGetStatus:
ARM GAS  C:\Users\andywei\AppData\Local\Temp\ccCe1C2z.s 			page 36


 693              	.LFB2:
 544:Drivers/sx126x/radio/sx126x/radio.c ****     switch( SX126xGetOperatingMode( ) )
 694              		.loc 1 544 1 is_stmt 1 view -0
 695              		.cfi_startproc
 696              		@ args = 0, pretend = 0, frame = 0
 697              		@ frame_needed = 0, uses_anonymous_args = 0
 698 0000 08B5     		push	{r3, lr}
 699              	.LCFI6:
 700              		.cfi_def_cfa_offset 8
 701              		.cfi_offset 3, -8
 702              		.cfi_offset 14, -4
 545:Drivers/sx126x/radio/sx126x/radio.c ****     {
 703              		.loc 1 545 5 view .LVU183
 545:Drivers/sx126x/radio/sx126x/radio.c ****     {
 704              		.loc 1 545 13 is_stmt 0 view .LVU184
 705 0002 FFF7FEFF 		bl	SX126xGetOperatingMode
 706              	.LVL82:
 545:Drivers/sx126x/radio/sx126x/radio.c ****     {
 707              		.loc 1 545 5 view .LVU185
 708 0006 0528     		cmp	r0, #5
 709 0008 07D0     		beq	.L68
 710 000a 0728     		cmp	r0, #7
 711 000c 07D0     		beq	.L69
 712 000e 0428     		cmp	r0, #4
 713 0010 01D0     		beq	.L72
 554:Drivers/sx126x/radio/sx126x/radio.c ****     }
 714              		.loc 1 554 20 view .LVU186
 715 0012 0020     		movs	r0, #0
 716              	.L67:
 556:Drivers/sx126x/radio/sx126x/radio.c **** 
 717              		.loc 1 556 1 view .LVU187
 718 0014 08BD     		pop	{r3, pc}
 719              	.L72:
 545:Drivers/sx126x/radio/sx126x/radio.c ****     {
 720              		.loc 1 545 5 view .LVU188
 721 0016 0220     		movs	r0, #2
 722 0018 FCE7     		b	.L67
 723              	.L68:
 550:Drivers/sx126x/radio/sx126x/radio.c ****         case MODE_CAD:
 724              		.loc 1 550 20 view .LVU189
 725 001a 0120     		movs	r0, #1
 726 001c FAE7     		b	.L67
 727              	.L69:
 552:Drivers/sx126x/radio/sx126x/radio.c ****         default:
 728              		.loc 1 552 20 view .LVU190
 729 001e 0320     		movs	r0, #3
 730 0020 F8E7     		b	.L67
 731              		.cfi_endproc
 732              	.LFE2:
 734              		.section	.text.RadioSetChannel,"ax",%progbits
 735              		.align	1
 736              		.global	RadioSetChannel
 737              		.syntax unified
 738              		.thumb
 739              		.thumb_func
 740              		.fpu fpv4-sp-d16
 742              	RadioSetChannel:
ARM GAS  C:\Users\andywei\AppData\Local\Temp\ccCe1C2z.s 			page 37


 743              	.LVL83:
 744              	.LFB4:
 582:Drivers/sx126x/radio/sx126x/radio.c ****     SX126xSetRfFrequency( freq );
 745              		.loc 1 582 1 is_stmt 1 view -0
 746              		.cfi_startproc
 747              		@ args = 0, pretend = 0, frame = 0
 748              		@ frame_needed = 0, uses_anonymous_args = 0
 582:Drivers/sx126x/radio/sx126x/radio.c ****     SX126xSetRfFrequency( freq );
 749              		.loc 1 582 1 is_stmt 0 view .LVU192
 750 0000 08B5     		push	{r3, lr}
 751              	.LCFI7:
 752              		.cfi_def_cfa_offset 8
 753              		.cfi_offset 3, -8
 754              		.cfi_offset 14, -4
 583:Drivers/sx126x/radio/sx126x/radio.c **** }
 755              		.loc 1 583 5 is_stmt 1 view .LVU193
 756 0002 FFF7FEFF 		bl	SX126xSetRfFrequency
 757              	.LVL84:
 584:Drivers/sx126x/radio/sx126x/radio.c **** 
 758              		.loc 1 584 1 is_stmt 0 view .LVU194
 759 0006 08BD     		pop	{r3, pc}
 760              		.cfi_endproc
 761              	.LFE4:
 763              		.section	.text.RadioSetMaxPayloadLength,"ax",%progbits
 764              		.align	1
 765              		.global	RadioSetMaxPayloadLength
 766              		.syntax unified
 767              		.thumb
 768              		.thumb_func
 769              		.fpu fpv4-sp-d16
 771              	RadioSetMaxPayloadLength:
 772              	.LVL85:
 773              	.LFB28:
1190:Drivers/sx126x/radio/sx126x/radio.c ****     if( modem == MODEM_LORA )
 774              		.loc 1 1190 1 is_stmt 1 view -0
 775              		.cfi_startproc
 776              		@ args = 0, pretend = 0, frame = 0
 777              		@ frame_needed = 0, uses_anonymous_args = 0
1190:Drivers/sx126x/radio/sx126x/radio.c ****     if( modem == MODEM_LORA )
 778              		.loc 1 1190 1 is_stmt 0 view .LVU196
 779 0000 08B5     		push	{r3, lr}
 780              	.LCFI8:
 781              		.cfi_def_cfa_offset 8
 782              		.cfi_offset 3, -8
 783              		.cfi_offset 14, -4
1191:Drivers/sx126x/radio/sx126x/radio.c ****     {
 784              		.loc 1 1191 5 is_stmt 1 view .LVU197
1191:Drivers/sx126x/radio/sx126x/radio.c ****     {
 785              		.loc 1 1191 7 is_stmt 0 view .LVU198
 786 0002 0128     		cmp	r0, #1
 787 0004 05D0     		beq	.L79
1198:Drivers/sx126x/radio/sx126x/radio.c ****         {
 788              		.loc 1 1198 9 is_stmt 1 view .LVU199
1198:Drivers/sx126x/radio/sx126x/radio.c ****         {
 789              		.loc 1 1198 44 is_stmt 0 view .LVU200
 790 0006 0C4B     		ldr	r3, .L81
 791 0008 93F8BF30 		ldrb	r3, [r3, #191]	@ zero_extendqisi2
ARM GAS  C:\Users\andywei\AppData\Local\Temp\ccCe1C2z.s 			page 38


1198:Drivers/sx126x/radio/sx126x/radio.c ****         {
 792              		.loc 1 1198 11 view .LVU201
 793 000c 012B     		cmp	r3, #1
 794 000e 09D0     		beq	.L80
 795              	.LVL86:
 796              	.L75:
1204:Drivers/sx126x/radio/sx126x/radio.c **** 
 797              		.loc 1 1204 1 view .LVU202
 798 0010 08BD     		pop	{r3, pc}
 799              	.LVL87:
 800              	.L79:
1193:Drivers/sx126x/radio/sx126x/radio.c ****         SX126xSetPacketParams( &SX126x.PacketParams );
 801              		.loc 1 1193 9 is_stmt 1 view .LVU203
1193:Drivers/sx126x/radio/sx126x/radio.c ****         SX126xSetPacketParams( &SX126x.PacketParams );
 802              		.loc 1 1193 74 is_stmt 0 view .LVU204
 803 0012 0A4B     		ldr	r3, .L81+4
 804 0014 1970     		strb	r1, [r3]
1193:Drivers/sx126x/radio/sx126x/radio.c ****         SX126xSetPacketParams( &SX126x.PacketParams );
 805              		.loc 1 1193 55 view .LVU205
 806 0016 0848     		ldr	r0, .L81
 807              	.LVL88:
1193:Drivers/sx126x/radio/sx126x/radio.c ****         SX126xSetPacketParams( &SX126x.PacketParams );
 808              		.loc 1 1193 55 view .LVU206
 809 0018 80F8C710 		strb	r1, [r0, #199]
1194:Drivers/sx126x/radio/sx126x/radio.c ****     }
 810              		.loc 1 1194 9 is_stmt 1 view .LVU207
 811 001c B830     		adds	r0, r0, #184
 812 001e FFF7FEFF 		bl	SX126xSetPacketParams
 813              	.LVL89:
1194:Drivers/sx126x/radio/sx126x/radio.c ****     }
 814              		.loc 1 1194 9 is_stmt 0 view .LVU208
 815 0022 F5E7     		b	.L75
 816              	.LVL90:
 817              	.L80:
1200:Drivers/sx126x/radio/sx126x/radio.c ****             SX126xSetPacketParams( &SX126x.PacketParams );
 818              		.loc 1 1200 13 is_stmt 1 view .LVU209
1200:Drivers/sx126x/radio/sx126x/radio.c ****             SX126xSetPacketParams( &SX126x.PacketParams );
 819              		.loc 1 1200 78 is_stmt 0 view .LVU210
 820 0024 054B     		ldr	r3, .L81+4
 821 0026 1970     		strb	r1, [r3]
1200:Drivers/sx126x/radio/sx126x/radio.c ****             SX126xSetPacketParams( &SX126x.PacketParams );
 822              		.loc 1 1200 59 view .LVU211
 823 0028 0348     		ldr	r0, .L81
 824              	.LVL91:
1200:Drivers/sx126x/radio/sx126x/radio.c ****             SX126xSetPacketParams( &SX126x.PacketParams );
 825              		.loc 1 1200 59 view .LVU212
 826 002a 80F8C010 		strb	r1, [r0, #192]
1201:Drivers/sx126x/radio/sx126x/radio.c ****         }
 827              		.loc 1 1201 13 is_stmt 1 view .LVU213
 828 002e B830     		adds	r0, r0, #184
 829 0030 FFF7FEFF 		bl	SX126xSetPacketParams
 830              	.LVL92:
1204:Drivers/sx126x/radio/sx126x/radio.c **** 
 831              		.loc 1 1204 1 is_stmt 0 view .LVU214
 832 0034 ECE7     		b	.L75
 833              	.L82:
 834 0036 00BF     		.align	2
ARM GAS  C:\Users\andywei\AppData\Local\Temp\ccCe1C2z.s 			page 39


 835              	.L81:
 836 0038 00000000 		.word	.LANCHOR4
 837 003c 00000000 		.word	.LANCHOR3
 838              		.cfi_endproc
 839              	.LFE28:
 841              		.section	.text.RadioRead,"ax",%progbits
 842              		.align	1
 843              		.global	RadioRead
 844              		.syntax unified
 845              		.thumb
 846              		.thumb_func
 847              		.fpu fpv4-sp-d16
 849              	RadioRead:
 850              	.LVL93:
 851              	.LFB25:
1175:Drivers/sx126x/radio/sx126x/radio.c ****     return SX126xReadRegister( addr );
 852              		.loc 1 1175 1 is_stmt 1 view -0
 853              		.cfi_startproc
 854              		@ args = 0, pretend = 0, frame = 0
 855              		@ frame_needed = 0, uses_anonymous_args = 0
1175:Drivers/sx126x/radio/sx126x/radio.c ****     return SX126xReadRegister( addr );
 856              		.loc 1 1175 1 is_stmt 0 view .LVU216
 857 0000 08B5     		push	{r3, lr}
 858              	.LCFI9:
 859              		.cfi_def_cfa_offset 8
 860              		.cfi_offset 3, -8
 861              		.cfi_offset 14, -4
1176:Drivers/sx126x/radio/sx126x/radio.c **** }
 862              		.loc 1 1176 5 is_stmt 1 view .LVU217
1176:Drivers/sx126x/radio/sx126x/radio.c **** }
 863              		.loc 1 1176 12 is_stmt 0 view .LVU218
 864 0002 80B2     		uxth	r0, r0
 865              	.LVL94:
1176:Drivers/sx126x/radio/sx126x/radio.c **** }
 866              		.loc 1 1176 12 view .LVU219
 867 0004 FFF7FEFF 		bl	SX126xReadRegister
 868              	.LVL95:
1177:Drivers/sx126x/radio/sx126x/radio.c **** 
 869              		.loc 1 1177 1 view .LVU220
 870 0008 08BD     		pop	{r3, pc}
 871              		.cfi_endproc
 872              	.LFE25:
 874              		.section	.text.RadioWrite,"ax",%progbits
 875              		.align	1
 876              		.global	RadioWrite
 877              		.syntax unified
 878              		.thumb
 879              		.thumb_func
 880              		.fpu fpv4-sp-d16
 882              	RadioWrite:
 883              	.LVL96:
 884              	.LFB24:
1170:Drivers/sx126x/radio/sx126x/radio.c ****     SX126xWriteRegister( addr, data );
 885              		.loc 1 1170 1 is_stmt 1 view -0
 886              		.cfi_startproc
 887              		@ args = 0, pretend = 0, frame = 0
 888              		@ frame_needed = 0, uses_anonymous_args = 0
ARM GAS  C:\Users\andywei\AppData\Local\Temp\ccCe1C2z.s 			page 40


1170:Drivers/sx126x/radio/sx126x/radio.c ****     SX126xWriteRegister( addr, data );
 889              		.loc 1 1170 1 is_stmt 0 view .LVU222
 890 0000 08B5     		push	{r3, lr}
 891              	.LCFI10:
 892              		.cfi_def_cfa_offset 8
 893              		.cfi_offset 3, -8
 894              		.cfi_offset 14, -4
1171:Drivers/sx126x/radio/sx126x/radio.c **** }
 895              		.loc 1 1171 5 is_stmt 1 view .LVU223
 896 0002 80B2     		uxth	r0, r0
 897              	.LVL97:
1171:Drivers/sx126x/radio/sx126x/radio.c **** }
 898              		.loc 1 1171 5 is_stmt 0 view .LVU224
 899 0004 FFF7FEFF 		bl	SX126xWriteRegister
 900              	.LVL98:
1172:Drivers/sx126x/radio/sx126x/radio.c **** 
 901              		.loc 1 1172 1 view .LVU225
 902 0008 08BD     		pop	{r3, pc}
 903              		.cfi_endproc
 904              	.LFE24:
 906              		.section	.text.RadioSetPublicNetwork,"ax",%progbits
 907              		.align	1
 908              		.global	RadioSetPublicNetwork
 909              		.syntax unified
 910              		.thumb
 911              		.thumb_func
 912              		.fpu fpv4-sp-d16
 914              	RadioSetPublicNetwork:
 915              	.LVL99:
 916              	.LFB29:
1207:Drivers/sx126x/radio/sx126x/radio.c ****     RadioPublicNetwork.Current = RadioPublicNetwork.Previous = enable;
 917              		.loc 1 1207 1 is_stmt 1 view -0
 918              		.cfi_startproc
 919              		@ args = 0, pretend = 0, frame = 0
 920              		@ frame_needed = 0, uses_anonymous_args = 0
1207:Drivers/sx126x/radio/sx126x/radio.c ****     RadioPublicNetwork.Current = RadioPublicNetwork.Previous = enable;
 921              		.loc 1 1207 1 is_stmt 0 view .LVU227
 922 0000 10B5     		push	{r4, lr}
 923              	.LCFI11:
 924              		.cfi_def_cfa_offset 8
 925              		.cfi_offset 4, -8
 926              		.cfi_offset 14, -4
 927 0002 0446     		mov	r4, r0
1208:Drivers/sx126x/radio/sx126x/radio.c **** 
 928              		.loc 1 1208 5 is_stmt 1 view .LVU228
1208:Drivers/sx126x/radio/sx126x/radio.c **** 
 929              		.loc 1 1208 62 is_stmt 0 view .LVU229
 930 0004 0E4B     		ldr	r3, .L91
 931 0006 1870     		strb	r0, [r3]
1208:Drivers/sx126x/radio/sx126x/radio.c **** 
 932              		.loc 1 1208 32 view .LVU230
 933 0008 5870     		strb	r0, [r3, #1]
1210:Drivers/sx126x/radio/sx126x/radio.c ****     if( enable == true )
 934              		.loc 1 1210 5 is_stmt 1 view .LVU231
 935 000a 0120     		movs	r0, #1
 936              	.LVL100:
1210:Drivers/sx126x/radio/sx126x/radio.c ****     if( enable == true )
ARM GAS  C:\Users\andywei\AppData\Local\Temp\ccCe1C2z.s 			page 41


 937              		.loc 1 1210 5 is_stmt 0 view .LVU232
 938 000c FFF7FEFF 		bl	RadioSetModem
 939              	.LVL101:
1211:Drivers/sx126x/radio/sx126x/radio.c ****     {
 940              		.loc 1 1211 5 is_stmt 1 view .LVU233
1211:Drivers/sx126x/radio/sx126x/radio.c ****     {
 941              		.loc 1 1211 7 is_stmt 0 view .LVU234
 942 0010 54B1     		cbz	r4, .L88
1214:Drivers/sx126x/radio/sx126x/radio.c ****         SX126xWriteRegister( REG_LR_SYNCWORD + 1, LORA_MAC_PUBLIC_SYNCWORD & 0xFF );
 943              		.loc 1 1214 9 is_stmt 1 view .LVU235
 944 0012 3421     		movs	r1, #52
 945 0014 4FF4E860 		mov	r0, #1856
 946 0018 FFF7FEFF 		bl	SX126xWriteRegister
 947              	.LVL102:
1215:Drivers/sx126x/radio/sx126x/radio.c ****     }
 948              		.loc 1 1215 9 view .LVU236
 949 001c 4421     		movs	r1, #68
 950 001e 40F24170 		movw	r0, #1857
 951 0022 FFF7FEFF 		bl	SX126xWriteRegister
 952              	.LVL103:
 953              	.L87:
1223:Drivers/sx126x/radio/sx126x/radio.c **** 
 954              		.loc 1 1223 1 is_stmt 0 view .LVU237
 955 0026 10BD     		pop	{r4, pc}
 956              	.L88:
1220:Drivers/sx126x/radio/sx126x/radio.c ****         SX126xWriteRegister( REG_LR_SYNCWORD + 1, LORA_MAC_PRIVATE_SYNCWORD & 0xFF );
 957              		.loc 1 1220 9 is_stmt 1 view .LVU238
 958 0028 1421     		movs	r1, #20
 959 002a 4FF4E860 		mov	r0, #1856
 960 002e FFF7FEFF 		bl	SX126xWriteRegister
 961              	.LVL104:
1221:Drivers/sx126x/radio/sx126x/radio.c ****     }
 962              		.loc 1 1221 9 view .LVU239
 963 0032 2421     		movs	r1, #36
 964 0034 40F24170 		movw	r0, #1857
 965 0038 FFF7FEFF 		bl	SX126xWriteRegister
 966              	.LVL105:
1223:Drivers/sx126x/radio/sx126x/radio.c **** 
 967              		.loc 1 1223 1 is_stmt 0 view .LVU240
 968 003c F3E7     		b	.L87
 969              	.L92:
 970 003e 00BF     		.align	2
 971              	.L91:
 972 0040 00000000 		.word	.LANCHOR5
 973              		.cfi_endproc
 974              	.LFE29:
 976              		.section	.text.RadioSetModem,"ax",%progbits
 977              		.align	1
 978              		.global	RadioSetModem
 979              		.syntax unified
 980              		.thumb
 981              		.thumb_func
 982              		.fpu fpv4-sp-d16
 984              	RadioSetModem:
 985              	.LVL106:
 986              	.LFB3:
 559:Drivers/sx126x/radio/sx126x/radio.c ****     switch( modem )
ARM GAS  C:\Users\andywei\AppData\Local\Temp\ccCe1C2z.s 			page 42


 987              		.loc 1 559 1 is_stmt 1 view -0
 988              		.cfi_startproc
 989              		@ args = 0, pretend = 0, frame = 0
 990              		@ frame_needed = 0, uses_anonymous_args = 0
 559:Drivers/sx126x/radio/sx126x/radio.c ****     switch( modem )
 991              		.loc 1 559 1 is_stmt 0 view .LVU242
 992 0000 08B5     		push	{r3, lr}
 993              	.LCFI12:
 994              		.cfi_def_cfa_offset 8
 995              		.cfi_offset 3, -8
 996              		.cfi_offset 14, -4
 560:Drivers/sx126x/radio/sx126x/radio.c ****     {
 997              		.loc 1 560 5 is_stmt 1 view .LVU243
 998 0002 0128     		cmp	r0, #1
 999 0004 06D0     		beq	.L94
 564:Drivers/sx126x/radio/sx126x/radio.c ****         // When switching to GFSK mode the LoRa SyncWord register value is reset
 1000              		.loc 1 564 9 view .LVU244
 1001 0006 0020     		movs	r0, #0
 1002              	.LVL107:
 564:Drivers/sx126x/radio/sx126x/radio.c ****         // When switching to GFSK mode the LoRa SyncWord register value is reset
 1003              		.loc 1 564 9 is_stmt 0 view .LVU245
 1004 0008 FFF7FEFF 		bl	SX126xSetPacketType
 1005              	.LVL108:
 567:Drivers/sx126x/radio/sx126x/radio.c ****         break;
 1006              		.loc 1 567 9 is_stmt 1 view .LVU246
 567:Drivers/sx126x/radio/sx126x/radio.c ****         break;
 1007              		.loc 1 567 36 is_stmt 0 view .LVU247
 1008 000c 074B     		ldr	r3, .L97
 1009 000e 0022     		movs	r2, #0
 1010 0010 5A70     		strb	r2, [r3, #1]
 568:Drivers/sx126x/radio/sx126x/radio.c ****     case MODEM_LORA:
 1011              		.loc 1 568 9 is_stmt 1 view .LVU248
 1012              	.L93:
 579:Drivers/sx126x/radio/sx126x/radio.c **** 
 1013              		.loc 1 579 1 is_stmt 0 view .LVU249
 1014 0012 08BD     		pop	{r3, pc}
 1015              	.LVL109:
 1016              	.L94:
 570:Drivers/sx126x/radio/sx126x/radio.c ****         // Public/Private network register is reset when switching modems
 1017              		.loc 1 570 9 is_stmt 1 view .LVU250
 1018 0014 0120     		movs	r0, #1
 1019              	.LVL110:
 570:Drivers/sx126x/radio/sx126x/radio.c ****         // Public/Private network register is reset when switching modems
 1020              		.loc 1 570 9 is_stmt 0 view .LVU251
 1021 0016 FFF7FEFF 		bl	SX126xSetPacketType
 1022              	.LVL111:
 572:Drivers/sx126x/radio/sx126x/radio.c ****         {
 1023              		.loc 1 572 9 is_stmt 1 view .LVU252
 572:Drivers/sx126x/radio/sx126x/radio.c ****         {
 1024              		.loc 1 572 31 is_stmt 0 view .LVU253
 1025 001a 044B     		ldr	r3, .L97
 1026 001c 5A78     		ldrb	r2, [r3, #1]	@ zero_extendqisi2
 572:Drivers/sx126x/radio/sx126x/radio.c ****         {
 1027              		.loc 1 572 61 view .LVU254
 1028 001e 1878     		ldrb	r0, [r3]	@ zero_extendqisi2
 572:Drivers/sx126x/radio/sx126x/radio.c ****         {
 1029              		.loc 1 572 11 view .LVU255
ARM GAS  C:\Users\andywei\AppData\Local\Temp\ccCe1C2z.s 			page 43


 1030 0020 8242     		cmp	r2, r0
 1031 0022 F6D0     		beq	.L93
 574:Drivers/sx126x/radio/sx126x/radio.c ****             RadioSetPublicNetwork( RadioPublicNetwork.Current );
 1032              		.loc 1 574 13 is_stmt 1 view .LVU256
 574:Drivers/sx126x/radio/sx126x/radio.c ****             RadioSetPublicNetwork( RadioPublicNetwork.Current );
 1033              		.loc 1 574 40 is_stmt 0 view .LVU257
 1034 0024 5870     		strb	r0, [r3, #1]
 575:Drivers/sx126x/radio/sx126x/radio.c ****         }
 1035              		.loc 1 575 13 is_stmt 1 view .LVU258
 1036 0026 FFF7FEFF 		bl	RadioSetPublicNetwork
 1037              	.LVL112:
 579:Drivers/sx126x/radio/sx126x/radio.c **** 
 1038              		.loc 1 579 1 is_stmt 0 view .LVU259
 1039 002a F2E7     		b	.L93
 1040              	.L98:
 1041              		.align	2
 1042              	.L97:
 1043 002c 00000000 		.word	.LANCHOR5
 1044              		.cfi_endproc
 1045              	.LFE3:
 1047              		.section	.text.RadioRandom,"ax",%progbits
 1048              		.align	1
 1049              		.global	RadioRandom
 1050              		.syntax unified
 1051              		.thumb
 1052              		.thumb_func
 1053              		.fpu fpv4-sp-d16
 1055              	RadioRandom:
 1056              	.LFB6:
 622:Drivers/sx126x/radio/sx126x/radio.c ****     uint32_t rnd = 0;
 1057              		.loc 1 622 1 is_stmt 1 view -0
 1058              		.cfi_startproc
 1059              		@ args = 0, pretend = 0, frame = 0
 1060              		@ frame_needed = 0, uses_anonymous_args = 0
 1061 0000 08B5     		push	{r3, lr}
 1062              	.LCFI13:
 1063              		.cfi_def_cfa_offset 8
 1064              		.cfi_offset 3, -8
 1065              		.cfi_offset 14, -4
 623:Drivers/sx126x/radio/sx126x/radio.c **** 
 1066              		.loc 1 623 5 view .LVU261
 1067              	.LVL113:
 629:Drivers/sx126x/radio/sx126x/radio.c **** 
 1068              		.loc 1 629 5 view .LVU262
 1069 0002 0120     		movs	r0, #1
 1070 0004 FFF7FEFF 		bl	RadioSetModem
 1071              	.LVL114:
 632:Drivers/sx126x/radio/sx126x/radio.c **** 
 1072              		.loc 1 632 5 view .LVU263
 1073 0008 0023     		movs	r3, #0
 1074 000a 1A46     		mov	r2, r3
 1075 000c 1946     		mov	r1, r3
 1076 000e 1846     		mov	r0, r3
 1077 0010 FFF7FEFF 		bl	SX126xSetDioIrqParams
 1078              	.LVL115:
 634:Drivers/sx126x/radio/sx126x/radio.c **** 
 1079              		.loc 1 634 5 view .LVU264
ARM GAS  C:\Users\andywei\AppData\Local\Temp\ccCe1C2z.s 			page 44


 634:Drivers/sx126x/radio/sx126x/radio.c **** 
 1080              		.loc 1 634 11 is_stmt 0 view .LVU265
 1081 0014 FFF7FEFF 		bl	SX126xGetRandom
 1082              	.LVL116:
 636:Drivers/sx126x/radio/sx126x/radio.c **** }
 1083              		.loc 1 636 5 is_stmt 1 view .LVU266
 637:Drivers/sx126x/radio/sx126x/radio.c **** 
 1084              		.loc 1 637 1 is_stmt 0 view .LVU267
 1085 0018 08BD     		pop	{r3, pc}
 1086              		.cfi_endproc
 1087              	.LFE6:
 1089              		.section	.text.RadioSetRxConfig,"ax",%progbits
 1090              		.align	1
 1091              		.global	RadioSetRxConfig
 1092              		.syntax unified
 1093              		.thumb
 1094              		.thumb_func
 1095              		.fpu fpv4-sp-d16
 1097              	RadioSetRxConfig:
 1098              	.LVL117:
 1099              	.LFB7:
 646:Drivers/sx126x/radio/sx126x/radio.c **** 
 1100              		.loc 1 646 1 is_stmt 1 view -0
 1101              		.cfi_startproc
 1102              		@ args = 40, pretend = 0, frame = 8
 1103              		@ frame_needed = 0, uses_anonymous_args = 0
 646:Drivers/sx126x/radio/sx126x/radio.c **** 
 1104              		.loc 1 646 1 is_stmt 0 view .LVU269
 1105 0000 2DE9F04F 		push	{r4, r5, r6, r7, r8, r9, r10, fp, lr}
 1106              	.LCFI14:
 1107              		.cfi_def_cfa_offset 36
 1108              		.cfi_offset 4, -36
 1109              		.cfi_offset 5, -32
 1110              		.cfi_offset 6, -28
 1111              		.cfi_offset 7, -24
 1112              		.cfi_offset 8, -20
 1113              		.cfi_offset 9, -16
 1114              		.cfi_offset 10, -12
 1115              		.cfi_offset 11, -8
 1116              		.cfi_offset 14, -4
 1117 0004 83B0     		sub	sp, sp, #12
 1118              	.LCFI15:
 1119              		.cfi_def_cfa_offset 48
 1120 0006 0C46     		mov	r4, r1
 1121 0008 1546     		mov	r5, r2
 1122 000a 1E46     		mov	r6, r3
 1123 000c BDF83480 		ldrh	r8, [sp, #52]
 1124 0010 BDF83890 		ldrh	r9, [sp, #56]
 1125 0014 9DF83C70 		ldrb	r7, [sp, #60]	@ zero_extendqisi2
 1126 0018 9DF844A0 		ldrb	r10, [sp, #68]	@ zero_extendqisi2
 1127 001c 9DF85430 		ldrb	r3, [sp, #84]	@ zero_extendqisi2
 1128              	.LVL118:
 648:Drivers/sx126x/radio/sx126x/radio.c ****     if( rxContinuous == true )
 1129              		.loc 1 648 5 is_stmt 1 view .LVU270
 648:Drivers/sx126x/radio/sx126x/radio.c ****     if( rxContinuous == true )
 1130              		.loc 1 648 18 is_stmt 0 view .LVU271
 1131 0020 754A     		ldr	r2, .L125
ARM GAS  C:\Users\andywei\AppData\Local\Temp\ccCe1C2z.s 			page 45


 1132              	.LVL119:
 648:Drivers/sx126x/radio/sx126x/radio.c ****     if( rxContinuous == true )
 1133              		.loc 1 648 18 view .LVU272
 1134 0022 1370     		strb	r3, [r2]
 649:Drivers/sx126x/radio/sx126x/radio.c ****     {
 1135              		.loc 1 649 5 is_stmt 1 view .LVU273
 649:Drivers/sx126x/radio/sx126x/radio.c ****     {
 1136              		.loc 1 649 7 is_stmt 0 view .LVU274
 1137 0024 0BB1     		cbz	r3, .L102
 651:Drivers/sx126x/radio/sx126x/radio.c ****     }
 1138              		.loc 1 651 21 view .LVU275
 1139 0026 4FF00009 		mov	r9, #0
 1140              	.L102:
 1141              	.LVL120:
 653:Drivers/sx126x/radio/sx126x/radio.c ****     {
 1142              		.loc 1 653 5 is_stmt 1 view .LVU276
 653:Drivers/sx126x/radio/sx126x/radio.c ****     {
 1143              		.loc 1 653 7 is_stmt 0 view .LVU277
 1144 002a 4FB1     		cbz	r7, .L103
 655:Drivers/sx126x/radio/sx126x/radio.c ****     }
 1145              		.loc 1 655 9 is_stmt 1 view .LVU278
 655:Drivers/sx126x/radio/sx126x/radio.c ****     }
 1146              		.loc 1 655 26 is_stmt 0 view .LVU279
 1147 002c 9DF84020 		ldrb	r2, [sp, #64]	@ zero_extendqisi2
 1148 0030 724B     		ldr	r3, .L125+4
 1149 0032 1A70     		strb	r2, [r3]
 1150              	.L104:
 662:Drivers/sx126x/radio/sx126x/radio.c ****     {
 1151              		.loc 1 662 5 is_stmt 1 view .LVU280
 1152 0034 40B1     		cbz	r0, .L105
 1153 0036 0128     		cmp	r0, #1
 1154 0038 64D0     		beq	.L106
 1155              	.LVL121:
 1156              	.L101:
 763:Drivers/sx126x/radio/sx126x/radio.c **** 
 1157              		.loc 1 763 1 is_stmt 0 view .LVU281
 1158 003a 03B0     		add	sp, sp, #12
 1159              	.LCFI16:
 1160              		.cfi_remember_state
 1161              		.cfi_def_cfa_offset 36
 1162              		@ sp needed
 1163 003c BDE8F08F 		pop	{r4, r5, r6, r7, r8, r9, r10, fp, pc}
 1164              	.LVL122:
 1165              	.L103:
 1166              	.LCFI17:
 1167              		.cfi_restore_state
 659:Drivers/sx126x/radio/sx126x/radio.c ****     }
 1168              		.loc 1 659 9 is_stmt 1 view .LVU282
 659:Drivers/sx126x/radio/sx126x/radio.c ****     }
 1169              		.loc 1 659 26 is_stmt 0 view .LVU283
 1170 0040 6E4B     		ldr	r3, .L125+4
 1171 0042 FF22     		movs	r2, #255
 1172 0044 1A70     		strb	r2, [r3]
 1173 0046 F5E7     		b	.L104
 1174              	.L105:
 1175              	.LBB2:
 665:Drivers/sx126x/radio/sx126x/radio.c ****             SX126x.ModulationParams.PacketType = PACKET_TYPE_GFSK;
ARM GAS  C:\Users\andywei\AppData\Local\Temp\ccCe1C2z.s 			page 46


 1176              		.loc 1 665 13 is_stmt 1 view .LVU284
 1177 0048 0020     		movs	r0, #0
 1178              	.LVL123:
 665:Drivers/sx126x/radio/sx126x/radio.c ****             SX126x.ModulationParams.PacketType = PACKET_TYPE_GFSK;
 1179              		.loc 1 665 13 is_stmt 0 view .LVU285
 1180 004a FFF7FEFF 		bl	SX126xSetStopRxTimerOnPreambleDetect
 1181              	.LVL124:
 666:Drivers/sx126x/radio/sx126x/radio.c **** 
 1182              		.loc 1 666 13 is_stmt 1 view .LVU286
 666:Drivers/sx126x/radio/sx126x/radio.c **** 
 1183              		.loc 1 666 48 is_stmt 0 view .LVU287
 1184 004e 6C4E     		ldr	r6, .L125+8
 1185 0050 4FF0000B 		mov	fp, #0
 1186 0054 86F8E0B0 		strb	fp, [r6, #224]
 668:Drivers/sx126x/radio/sx126x/radio.c ****             SX126x.ModulationParams.Params.Gfsk.ModulationShaping = MOD_SHAPING_G_BT_1;
 1187              		.loc 1 668 13 is_stmt 1 view .LVU288
 668:Drivers/sx126x/radio/sx126x/radio.c ****             SX126x.ModulationParams.Params.Gfsk.ModulationShaping = MOD_SHAPING_G_BT_1;
 1188              		.loc 1 668 57 is_stmt 0 view .LVU289
 1189 0058 C6F8E450 		str	r5, [r6, #228]
 669:Drivers/sx126x/radio/sx126x/radio.c ****             SX126x.ModulationParams.Params.Gfsk.Bandwidth = RadioGetFskBandwidthRegValue( bandwidth
 1190              		.loc 1 669 13 is_stmt 1 view .LVU290
 669:Drivers/sx126x/radio/sx126x/radio.c ****             SX126x.ModulationParams.Params.Gfsk.Bandwidth = RadioGetFskBandwidthRegValue( bandwidth
 1191              		.loc 1 669 67 is_stmt 0 view .LVU291
 1192 005c 0B23     		movs	r3, #11
 1193 005e 86F8EC30 		strb	r3, [r6, #236]
 670:Drivers/sx126x/radio/sx126x/radio.c **** 
 1194              		.loc 1 670 13 is_stmt 1 view .LVU292
 670:Drivers/sx126x/radio/sx126x/radio.c **** 
 1195              		.loc 1 670 61 is_stmt 0 view .LVU293
 1196 0062 6000     		lsls	r0, r4, #1
 1197 0064 FFF7FEFF 		bl	RadioGetFskBandwidthRegValue
 1198              	.LVL125:
 670:Drivers/sx126x/radio/sx126x/radio.c **** 
 1199              		.loc 1 670 59 view .LVU294
 1200 0068 86F8ED00 		strb	r0, [r6, #237]
 672:Drivers/sx126x/radio/sx126x/radio.c ****             SX126x.PacketParams.Params.Gfsk.PreambleLength = ( preambleLen << 3 ); // convert byte 
 1201              		.loc 1 672 13 is_stmt 1 view .LVU295
 672:Drivers/sx126x/radio/sx126x/radio.c ****             SX126x.PacketParams.Params.Gfsk.PreambleLength = ( preambleLen << 3 ); // convert byte 
 1202              		.loc 1 672 44 is_stmt 0 view .LVU296
 1203 006c 86F8B8B0 		strb	fp, [r6, #184]
 673:Drivers/sx126x/radio/sx126x/radio.c ****             SX126x.PacketParams.Params.Gfsk.PreambleMinDetect = RADIO_PREAMBLE_DETECTOR_08_BITS;
 1204              		.loc 1 673 13 is_stmt 1 view .LVU297
 673:Drivers/sx126x/radio/sx126x/radio.c ****             SX126x.PacketParams.Params.Gfsk.PreambleMinDetect = RADIO_PREAMBLE_DETECTOR_08_BITS;
 1205              		.loc 1 673 76 is_stmt 0 view .LVU298
 1206 0070 4FEAC808 		lsl	r8, r8, #3
 673:Drivers/sx126x/radio/sx126x/radio.c ****             SX126x.PacketParams.Params.Gfsk.PreambleMinDetect = RADIO_PREAMBLE_DETECTOR_08_BITS;
 1207              		.loc 1 673 60 view .LVU299
 1208 0074 A6F8BA80 		strh	r8, [r6, #186]	@ movhi
 674:Drivers/sx126x/radio/sx126x/radio.c ****             SX126x.PacketParams.Params.Gfsk.SyncWordLength = 3 << 3; // convert byte into bit
 1209              		.loc 1 674 13 is_stmt 1 view .LVU300
 674:Drivers/sx126x/radio/sx126x/radio.c ****             SX126x.PacketParams.Params.Gfsk.SyncWordLength = 3 << 3; // convert byte into bit
 1210              		.loc 1 674 63 is_stmt 0 view .LVU301
 1211 0078 0423     		movs	r3, #4
 1212 007a 86F8BC30 		strb	r3, [r6, #188]
 675:Drivers/sx126x/radio/sx126x/radio.c ****             SX126x.PacketParams.Params.Gfsk.AddrComp = RADIO_ADDRESSCOMP_FILT_OFF;
 1213              		.loc 1 675 13 is_stmt 1 view .LVU302
 675:Drivers/sx126x/radio/sx126x/radio.c ****             SX126x.PacketParams.Params.Gfsk.AddrComp = RADIO_ADDRESSCOMP_FILT_OFF;
ARM GAS  C:\Users\andywei\AppData\Local\Temp\ccCe1C2z.s 			page 47


 1214              		.loc 1 675 60 is_stmt 0 view .LVU303
 1215 007e 1823     		movs	r3, #24
 1216 0080 86F8BD30 		strb	r3, [r6, #189]
 676:Drivers/sx126x/radio/sx126x/radio.c ****             SX126x.PacketParams.Params.Gfsk.HeaderType = ( fixLen == true ) ? RADIO_PACKET_FIXED_LE
 1217              		.loc 1 676 13 is_stmt 1 view .LVU304
 676:Drivers/sx126x/radio/sx126x/radio.c ****             SX126x.PacketParams.Params.Gfsk.HeaderType = ( fixLen == true ) ? RADIO_PACKET_FIXED_LE
 1218              		.loc 1 676 54 is_stmt 0 view .LVU305
 1219 0084 86F8BEB0 		strb	fp, [r6, #190]
 677:Drivers/sx126x/radio/sx126x/radio.c ****             SX126x.PacketParams.Params.Gfsk.PayloadLength = MaxPayloadLength;
 1220              		.loc 1 677 13 is_stmt 1 view .LVU306
 677:Drivers/sx126x/radio/sx126x/radio.c ****             SX126x.PacketParams.Params.Gfsk.PayloadLength = MaxPayloadLength;
 1221              		.loc 1 677 105 is_stmt 0 view .LVU307
 1222 0088 87F00107 		eor	r7, r7, #1
 677:Drivers/sx126x/radio/sx126x/radio.c ****             SX126x.PacketParams.Params.Gfsk.PayloadLength = MaxPayloadLength;
 1223              		.loc 1 677 56 view .LVU308
 1224 008c 86F8BF70 		strb	r7, [r6, #191]
 678:Drivers/sx126x/radio/sx126x/radio.c ****             if( crcOn == true )
 1225              		.loc 1 678 13 is_stmt 1 view .LVU309
 678:Drivers/sx126x/radio/sx126x/radio.c ****             if( crcOn == true )
 1226              		.loc 1 678 59 is_stmt 0 view .LVU310
 1227 0090 5A4B     		ldr	r3, .L125+4
 1228 0092 1B78     		ldrb	r3, [r3]	@ zero_extendqisi2
 1229 0094 86F8C030 		strb	r3, [r6, #192]
 679:Drivers/sx126x/radio/sx126x/radio.c ****             {
 1230              		.loc 1 679 13 is_stmt 1 view .LVU311
 679:Drivers/sx126x/radio/sx126x/radio.c ****             {
 1231              		.loc 1 679 15 is_stmt 0 view .LVU312
 1232 0098 BAF1000F 		cmp	r10, #0
 1233 009c 2DD0     		beq	.L108
 681:Drivers/sx126x/radio/sx126x/radio.c ****             }
 1234              		.loc 1 681 17 is_stmt 1 view .LVU313
 681:Drivers/sx126x/radio/sx126x/radio.c ****             }
 1235              		.loc 1 681 59 is_stmt 0 view .LVU314
 1236 009e F222     		movs	r2, #242
 1237 00a0 86F8C120 		strb	r2, [r6, #193]
 1238              	.L109:
 687:Drivers/sx126x/radio/sx126x/radio.c **** 
 1239              		.loc 1 687 13 is_stmt 1 view .LVU315
 687:Drivers/sx126x/radio/sx126x/radio.c **** 
 1240              		.loc 1 687 52 is_stmt 0 view .LVU316
 1241 00a4 564C     		ldr	r4, .L125+8
 1242              	.LVL126:
 687:Drivers/sx126x/radio/sx126x/radio.c **** 
 1243              		.loc 1 687 52 view .LVU317
 1244 00a6 0123     		movs	r3, #1
 1245 00a8 84F8C230 		strb	r3, [r4, #194]
 689:Drivers/sx126x/radio/sx126x/radio.c ****             RadioSetModem( ( SX126x.ModulationParams.PacketType == PACKET_TYPE_GFSK ) ? MODEM_FSK :
 1246              		.loc 1 689 13 is_stmt 1 view .LVU318
 1247 00ac FFF7FEFF 		bl	RadioStandby
 1248              	.LVL127:
 690:Drivers/sx126x/radio/sx126x/radio.c ****             SX126xSetModulationParams( &SX126x.ModulationParams );
 1249              		.loc 1 690 13 view .LVU319
 690:Drivers/sx126x/radio/sx126x/radio.c ****             SX126xSetModulationParams( &SX126x.ModulationParams );
 1250              		.loc 1 690 53 is_stmt 0 view .LVU320
 1251 00b0 2646     		mov	r6, r4
 1252 00b2 16F8E00F 		ldrb	r0, [r6, #224]!	@ zero_extendqisi2
 690:Drivers/sx126x/radio/sx126x/radio.c ****             SX126xSetModulationParams( &SX126x.ModulationParams );
ARM GAS  C:\Users\andywei\AppData\Local\Temp\ccCe1C2z.s 			page 48


 1253              		.loc 1 690 13 view .LVU321
 1254 00b6 0038     		subs	r0, r0, #0
 1255 00b8 18BF     		it	ne
 1256 00ba 0120     		movne	r0, #1
 1257 00bc FFF7FEFF 		bl	RadioSetModem
 1258              	.LVL128:
 691:Drivers/sx126x/radio/sx126x/radio.c ****             SX126xSetPacketParams( &SX126x.PacketParams );
 1259              		.loc 1 691 13 is_stmt 1 view .LVU322
 1260 00c0 3046     		mov	r0, r6
 1261 00c2 FFF7FEFF 		bl	SX126xSetModulationParams
 1262              	.LVL129:
 692:Drivers/sx126x/radio/sx126x/radio.c ****             SX126xSetSyncWord( ( uint8_t[] ){ 0xC1, 0x94, 0xC1, 0x00, 0x00, 0x00, 0x00, 0x00 } );
 1263              		.loc 1 692 13 view .LVU323
 1264 00c6 04F1B800 		add	r0, r4, #184
 1265 00ca FFF7FEFF 		bl	SX126xSetPacketParams
 1266              	.LVL130:
 693:Drivers/sx126x/radio/sx126x/radio.c ****             SX126xSetWhiteningSeed( 0x01FF );
 1267              		.loc 1 693 13 view .LVU324
 693:Drivers/sx126x/radio/sx126x/radio.c ****             SX126xSetWhiteningSeed( 0x01FF );
 1268              		.loc 1 693 45 is_stmt 0 view .LVU325
 1269 00ce 4D4A     		ldr	r2, .L125+12
 1270 00d0 6B46     		mov	r3, sp
 1271 00d2 92E80300 		ldm	r2, {r0, r1}
 1272 00d6 83E80300 		stm	r3, {r0, r1}
 693:Drivers/sx126x/radio/sx126x/radio.c ****             SX126xSetWhiteningSeed( 0x01FF );
 1273              		.loc 1 693 13 view .LVU326
 1274 00da 1846     		mov	r0, r3
 1275 00dc FFF7FEFF 		bl	SX126xSetSyncWord
 1276              	.LVL131:
 694:Drivers/sx126x/radio/sx126x/radio.c **** 
 1277              		.loc 1 694 13 is_stmt 1 view .LVU327
 1278 00e0 40F2FF10 		movw	r0, #511
 1279 00e4 FFF7FEFF 		bl	SX126xSetWhiteningSeed
 1280              	.LVL132:
 696:Drivers/sx126x/radio/sx126x/radio.c ****             break;
 1281              		.loc 1 696 13 view .LVU328
 696:Drivers/sx126x/radio/sx126x/radio.c ****             break;
 1282              		.loc 1 696 49 is_stmt 0 view .LVU329
 1283 00e8 4FF4FA52 		mov	r2, #8000
 1284 00ec 02FB09F9 		mul	r9, r2, r9
 1285              	.LVL133:
 696:Drivers/sx126x/radio/sx126x/radio.c ****             break;
 1286              		.loc 1 696 58 view .LVU330
 1287 00f0 B9FBF5F5 		udiv	r5, r9, r5
 1288              	.LVL134:
 696:Drivers/sx126x/radio/sx126x/radio.c ****             break;
 1289              		.loc 1 696 23 view .LVU331
 1290 00f4 444B     		ldr	r3, .L125+16
 1291 00f6 1D60     		str	r5, [r3]
 697:Drivers/sx126x/radio/sx126x/radio.c **** 
 1292              		.loc 1 697 13 is_stmt 1 view .LVU332
 1293 00f8 9FE7     		b	.L101
 1294              	.LVL135:
 1295              	.L108:
 685:Drivers/sx126x/radio/sx126x/radio.c ****             }
 1296              		.loc 1 685 17 view .LVU333
 685:Drivers/sx126x/radio/sx126x/radio.c ****             }
ARM GAS  C:\Users\andywei\AppData\Local\Temp\ccCe1C2z.s 			page 49


 1297              		.loc 1 685 59 is_stmt 0 view .LVU334
 1298 00fa 414B     		ldr	r3, .L125+8
 1299 00fc 0122     		movs	r2, #1
 1300 00fe 83F8C120 		strb	r2, [r3, #193]
 1301 0102 CFE7     		b	.L109
 1302              	.LVL136:
 1303              	.L106:
 700:Drivers/sx126x/radio/sx126x/radio.c ****             SX126x.ModulationParams.PacketType = PACKET_TYPE_LORA;
 1304              		.loc 1 700 13 is_stmt 1 view .LVU335
 1305 0104 0020     		movs	r0, #0
 1306              	.LVL137:
 700:Drivers/sx126x/radio/sx126x/radio.c ****             SX126x.ModulationParams.PacketType = PACKET_TYPE_LORA;
 1307              		.loc 1 700 13 is_stmt 0 view .LVU336
 1308 0106 FFF7FEFF 		bl	SX126xSetStopRxTimerOnPreambleDetect
 1309              	.LVL138:
 701:Drivers/sx126x/radio/sx126x/radio.c ****             SX126x.ModulationParams.Params.LoRa.SpreadingFactor = ( RadioLoRaSpreadingFactors_t )da
 1310              		.loc 1 701 13 is_stmt 1 view .LVU337
 701:Drivers/sx126x/radio/sx126x/radio.c ****             SX126x.ModulationParams.Params.LoRa.SpreadingFactor = ( RadioLoRaSpreadingFactors_t )da
 1311              		.loc 1 701 48 is_stmt 0 view .LVU338
 1312 010a 3D4A     		ldr	r2, .L125+8
 1313 010c 0123     		movs	r3, #1
 1314 010e 82F8E030 		strb	r3, [r2, #224]
 702:Drivers/sx126x/radio/sx126x/radio.c ****             SX126x.ModulationParams.Params.LoRa.Bandwidth = Bandwidths[bandwidth];
 1315              		.loc 1 702 13 is_stmt 1 view .LVU339
 702:Drivers/sx126x/radio/sx126x/radio.c ****             SX126x.ModulationParams.Params.LoRa.Bandwidth = Bandwidths[bandwidth];
 1316              		.loc 1 702 67 is_stmt 0 view .LVU340
 1317 0112 EBB2     		uxtb	r3, r5
 702:Drivers/sx126x/radio/sx126x/radio.c ****             SX126x.ModulationParams.Params.LoRa.Bandwidth = Bandwidths[bandwidth];
 1318              		.loc 1 702 65 view .LVU341
 1319 0114 82F8F030 		strb	r3, [r2, #240]
 703:Drivers/sx126x/radio/sx126x/radio.c ****             SX126x.ModulationParams.Params.LoRa.CodingRate = ( RadioLoRaCodingRates_t )coderate;
 1320              		.loc 1 703 13 is_stmt 1 view .LVU342
 703:Drivers/sx126x/radio/sx126x/radio.c ****             SX126x.ModulationParams.Params.LoRa.CodingRate = ( RadioLoRaCodingRates_t )coderate;
 1321              		.loc 1 703 71 is_stmt 0 view .LVU343
 1322 0118 3C49     		ldr	r1, .L125+20
 1323 011a 095D     		ldrb	r1, [r1, r4]	@ zero_extendqisi2
 703:Drivers/sx126x/radio/sx126x/radio.c ****             SX126x.ModulationParams.Params.LoRa.CodingRate = ( RadioLoRaCodingRates_t )coderate;
 1324              		.loc 1 703 59 view .LVU344
 1325 011c 82F8F110 		strb	r1, [r2, #241]
 704:Drivers/sx126x/radio/sx126x/radio.c **** 
 1326              		.loc 1 704 13 is_stmt 1 view .LVU345
 704:Drivers/sx126x/radio/sx126x/radio.c **** 
 1327              		.loc 1 704 60 is_stmt 0 view .LVU346
 1328 0120 82F8F260 		strb	r6, [r2, #242]
 706:Drivers/sx126x/radio/sx126x/radio.c ****             ( ( bandwidth == 1 ) && ( datarate == 12 ) ) )
 1329              		.loc 1 706 13 is_stmt 1 view .LVU347
 706:Drivers/sx126x/radio/sx126x/radio.c ****             ( ( bandwidth == 1 ) && ( datarate == 12 ) ) )
 1330              		.loc 1 706 15 is_stmt 0 view .LVU348
 1331 0124 1CB9     		cbnz	r4, .L111
 706:Drivers/sx126x/radio/sx126x/radio.c ****             ( ( bandwidth == 1 ) && ( datarate == 12 ) ) )
 1332              		.loc 1 706 62 discriminator 1 view .LVU349
 1333 0126 A5F10B02 		sub	r2, r5, #11
 706:Drivers/sx126x/radio/sx126x/radio.c ****             ( ( bandwidth == 1 ) && ( datarate == 12 ) ) )
 1334              		.loc 1 706 38 discriminator 1 view .LVU350
 1335 012a 012A     		cmp	r2, #1
 1336 012c 48D9     		bls	.L112
 1337              	.L111:
ARM GAS  C:\Users\andywei\AppData\Local\Temp\ccCe1C2z.s 			page 50


 706:Drivers/sx126x/radio/sx126x/radio.c ****             ( ( bandwidth == 1 ) && ( datarate == 12 ) ) )
 1338              		.loc 1 706 88 discriminator 3 view .LVU351
 1339 012e 012C     		cmp	r4, #1
 1340 0130 44D0     		beq	.L122
 1341              	.L113:
 713:Drivers/sx126x/radio/sx126x/radio.c ****             }
 1342              		.loc 1 713 17 is_stmt 1 view .LVU352
 713:Drivers/sx126x/radio/sx126x/radio.c ****             }
 1343              		.loc 1 713 73 is_stmt 0 view .LVU353
 1344 0132 334A     		ldr	r2, .L125+8
 1345 0134 0021     		movs	r1, #0
 1346 0136 82F8F310 		strb	r1, [r2, #243]
 1347              	.L114:
 716:Drivers/sx126x/radio/sx126x/radio.c **** 
 1348              		.loc 1 716 13 is_stmt 1 view .LVU354
 716:Drivers/sx126x/radio/sx126x/radio.c **** 
 1349              		.loc 1 716 44 is_stmt 0 view .LVU355
 1350 013a 314A     		ldr	r2, .L125+8
 1351 013c 0121     		movs	r1, #1
 1352 013e 82F8B810 		strb	r1, [r2, #184]
 718:Drivers/sx126x/radio/sx126x/radio.c ****                 ( SX126x.ModulationParams.Params.LoRa.SpreadingFactor == LORA_SF6 ) )
 1353              		.loc 1 718 13 is_stmt 1 view .LVU356
 718:Drivers/sx126x/radio/sx126x/radio.c ****                 ( SX126x.ModulationParams.Params.LoRa.SpreadingFactor == LORA_SF6 ) )
 1354              		.loc 1 718 85 is_stmt 0 view .LVU357
 1355 0142 053B     		subs	r3, r3, #5
 1356 0144 DBB2     		uxtb	r3, r3
 718:Drivers/sx126x/radio/sx126x/radio.c ****                 ( SX126x.ModulationParams.Params.LoRa.SpreadingFactor == LORA_SF6 ) )
 1357              		.loc 1 718 15 view .LVU358
 1358 0146 8B42     		cmp	r3, r1
 1359 0148 3FD9     		bls	.L123
 732:Drivers/sx126x/radio/sx126x/radio.c ****             }
 1360              		.loc 1 732 17 is_stmt 1 view .LVU359
 732:Drivers/sx126x/radio/sx126x/radio.c ****             }
 1361              		.loc 1 732 64 is_stmt 0 view .LVU360
 1362 014a 2D4B     		ldr	r3, .L125+8
 1363 014c A3F8C480 		strh	r8, [r3, #196]	@ movhi
 1364              	.L117:
 735:Drivers/sx126x/radio/sx126x/radio.c **** 
 1365              		.loc 1 735 13 is_stmt 1 view .LVU361
 735:Drivers/sx126x/radio/sx126x/radio.c **** 
 1366              		.loc 1 735 56 is_stmt 0 view .LVU362
 1367 0150 2B4C     		ldr	r4, .L125+8
 1368              	.LVL139:
 735:Drivers/sx126x/radio/sx126x/radio.c **** 
 1369              		.loc 1 735 56 view .LVU363
 1370 0152 84F8C670 		strb	r7, [r4, #198]
 737:Drivers/sx126x/radio/sx126x/radio.c ****             SX126x.PacketParams.Params.LoRa.CrcMode = ( RadioLoRaCrcModes_t )crcOn;
 1371              		.loc 1 737 13 is_stmt 1 view .LVU364
 737:Drivers/sx126x/radio/sx126x/radio.c ****             SX126x.PacketParams.Params.LoRa.CrcMode = ( RadioLoRaCrcModes_t )crcOn;
 1372              		.loc 1 737 59 is_stmt 0 view .LVU365
 1373 0156 294B     		ldr	r3, .L125+4
 1374 0158 1B78     		ldrb	r3, [r3]	@ zero_extendqisi2
 1375 015a 84F8C730 		strb	r3, [r4, #199]
 738:Drivers/sx126x/radio/sx126x/radio.c ****             SX126x.PacketParams.Params.LoRa.InvertIQ = ( RadioLoRaIQModes_t )iqInverted;
 1376              		.loc 1 738 13 is_stmt 1 view .LVU366
 738:Drivers/sx126x/radio/sx126x/radio.c ****             SX126x.PacketParams.Params.LoRa.InvertIQ = ( RadioLoRaIQModes_t )iqInverted;
 1377              		.loc 1 738 53 is_stmt 0 view .LVU367
ARM GAS  C:\Users\andywei\AppData\Local\Temp\ccCe1C2z.s 			page 51


 1378 015e 84F8C8A0 		strb	r10, [r4, #200]
 739:Drivers/sx126x/radio/sx126x/radio.c **** 
 1379              		.loc 1 739 13 is_stmt 1 view .LVU368
 739:Drivers/sx126x/radio/sx126x/radio.c **** 
 1380              		.loc 1 739 54 is_stmt 0 view .LVU369
 1381 0162 9DF85030 		ldrb	r3, [sp, #80]	@ zero_extendqisi2
 1382 0166 84F8C930 		strb	r3, [r4, #201]
 741:Drivers/sx126x/radio/sx126x/radio.c ****             RadioSetModem( ( SX126x.ModulationParams.PacketType == PACKET_TYPE_GFSK ) ? MODEM_FSK :
 1383              		.loc 1 741 13 is_stmt 1 view .LVU370
 1384 016a FFF7FEFF 		bl	RadioStandby
 1385              	.LVL140:
 742:Drivers/sx126x/radio/sx126x/radio.c ****             SX126xSetModulationParams( &SX126x.ModulationParams );
 1386              		.loc 1 742 13 view .LVU371
 742:Drivers/sx126x/radio/sx126x/radio.c ****             SX126xSetModulationParams( &SX126x.ModulationParams );
 1387              		.loc 1 742 53 is_stmt 0 view .LVU372
 1388 016e 2546     		mov	r5, r4
 1389              	.LVL141:
 742:Drivers/sx126x/radio/sx126x/radio.c ****             SX126xSetModulationParams( &SX126x.ModulationParams );
 1390              		.loc 1 742 53 view .LVU373
 1391 0170 15F8E00F 		ldrb	r0, [r5, #224]!	@ zero_extendqisi2
 742:Drivers/sx126x/radio/sx126x/radio.c ****             SX126xSetModulationParams( &SX126x.ModulationParams );
 1392              		.loc 1 742 13 view .LVU374
 1393 0174 0038     		subs	r0, r0, #0
 1394 0176 18BF     		it	ne
 1395 0178 0120     		movne	r0, #1
 1396 017a FFF7FEFF 		bl	RadioSetModem
 1397              	.LVL142:
 743:Drivers/sx126x/radio/sx126x/radio.c ****             SX126xSetPacketParams( &SX126x.PacketParams );
 1398              		.loc 1 743 13 is_stmt 1 view .LVU375
 1399 017e 2846     		mov	r0, r5
 1400 0180 FFF7FEFF 		bl	SX126xSetModulationParams
 1401              	.LVL143:
 744:Drivers/sx126x/radio/sx126x/radio.c ****             SX126xSetLoRaSymbNumTimeout( symbTimeout );
 1402              		.loc 1 744 13 view .LVU376
 1403 0184 04F1B800 		add	r0, r4, #184
 1404 0188 FFF7FEFF 		bl	SX126xSetPacketParams
 1405              	.LVL144:
 745:Drivers/sx126x/radio/sx126x/radio.c **** 
 1406              		.loc 1 745 13 view .LVU377
 1407 018c 5FFA89F0 		uxtb	r0, r9
 1408 0190 FFF7FEFF 		bl	SX126xSetLoRaSymbNumTimeout
 1409              	.LVL145:
 748:Drivers/sx126x/radio/sx126x/radio.c ****             {
 1410              		.loc 1 748 13 view .LVU378
 748:Drivers/sx126x/radio/sx126x/radio.c ****             {
 1411              		.loc 1 748 48 is_stmt 0 view .LVU379
 1412 0194 94F8C930 		ldrb	r3, [r4, #201]	@ zero_extendqisi2
 748:Drivers/sx126x/radio/sx126x/radio.c ****             {
 1413              		.loc 1 748 15 view .LVU380
 1414 0198 012B     		cmp	r3, #1
 1415 019a 22D0     		beq	.L124
 754:Drivers/sx126x/radio/sx126x/radio.c ****             }
 1416              		.loc 1 754 17 is_stmt 1 view .LVU381
 754:Drivers/sx126x/radio/sx126x/radio.c ****             }
 1417              		.loc 1 754 55 is_stmt 0 view .LVU382
 1418 019c 40F23670 		movw	r0, #1846
 1419 01a0 FFF7FEFF 		bl	SX126xReadRegister
ARM GAS  C:\Users\andywei\AppData\Local\Temp\ccCe1C2z.s 			page 52


 1420              	.LVL146:
 754:Drivers/sx126x/radio/sx126x/radio.c ****             }
 1421              		.loc 1 754 17 view .LVU383
 1422 01a4 40F00401 		orr	r1, r0, #4
 1423 01a8 C9B2     		uxtb	r1, r1
 1424 01aa 40F23670 		movw	r0, #1846
 1425 01ae FFF7FEFF 		bl	SX126xWriteRegister
 1426              	.LVL147:
 1427              	.L119:
 759:Drivers/sx126x/radio/sx126x/radio.c **** 
 1428              		.loc 1 759 13 is_stmt 1 view .LVU384
 759:Drivers/sx126x/radio/sx126x/radio.c **** 
 1429              		.loc 1 759 23 is_stmt 0 view .LVU385
 1430 01b2 154B     		ldr	r3, .L125+16
 1431 01b4 4FF6FF72 		movw	r2, #65535
 1432 01b8 1A60     		str	r2, [r3]
 761:Drivers/sx126x/radio/sx126x/radio.c ****     }
 1433              		.loc 1 761 13 is_stmt 1 view .LVU386
 1434              	.LBE2:
 763:Drivers/sx126x/radio/sx126x/radio.c **** 
 1435              		.loc 1 763 1 is_stmt 0 view .LVU387
 1436 01ba 3EE7     		b	.L101
 1437              	.LVL148:
 1438              	.L122:
 1439              	.LBB3:
 707:Drivers/sx126x/radio/sx126x/radio.c ****             {
 1440              		.loc 1 707 34 view .LVU388
 1441 01bc 0C2D     		cmp	r5, #12
 1442 01be B8D1     		bne	.L113
 1443              	.L112:
 709:Drivers/sx126x/radio/sx126x/radio.c ****             }
 1444              		.loc 1 709 17 is_stmt 1 view .LVU389
 709:Drivers/sx126x/radio/sx126x/radio.c ****             }
 1445              		.loc 1 709 73 is_stmt 0 view .LVU390
 1446 01c0 0F4A     		ldr	r2, .L125+8
 1447 01c2 0121     		movs	r1, #1
 1448 01c4 82F8F310 		strb	r1, [r2, #243]
 1449 01c8 B7E7     		b	.L114
 1450              	.L123:
 721:Drivers/sx126x/radio/sx126x/radio.c ****                 {
 1451              		.loc 1 721 17 is_stmt 1 view .LVU391
 721:Drivers/sx126x/radio/sx126x/radio.c ****                 {
 1452              		.loc 1 721 19 is_stmt 0 view .LVU392
 1453 01ca B8F10B0F 		cmp	r8, #11
 1454 01ce 04D8     		bhi	.L116
 723:Drivers/sx126x/radio/sx126x/radio.c ****                 }
 1455              		.loc 1 723 21 is_stmt 1 view .LVU393
 723:Drivers/sx126x/radio/sx126x/radio.c ****                 }
 1456              		.loc 1 723 68 is_stmt 0 view .LVU394
 1457 01d0 1346     		mov	r3, r2
 1458 01d2 0C22     		movs	r2, #12
 1459 01d4 A3F8C420 		strh	r2, [r3, #196]	@ movhi
 1460 01d8 BAE7     		b	.L117
 1461              	.L116:
 727:Drivers/sx126x/radio/sx126x/radio.c ****                 }
 1462              		.loc 1 727 21 is_stmt 1 view .LVU395
 727:Drivers/sx126x/radio/sx126x/radio.c ****                 }
ARM GAS  C:\Users\andywei\AppData\Local\Temp\ccCe1C2z.s 			page 53


 1463              		.loc 1 727 68 is_stmt 0 view .LVU396
 1464 01da 094B     		ldr	r3, .L125+8
 1465 01dc A3F8C480 		strh	r8, [r3, #196]	@ movhi
 1466 01e0 B6E7     		b	.L117
 1467              	.LVL149:
 1468              	.L124:
 750:Drivers/sx126x/radio/sx126x/radio.c ****             }
 1469              		.loc 1 750 17 is_stmt 1 view .LVU397
 750:Drivers/sx126x/radio/sx126x/radio.c ****             }
 1470              		.loc 1 750 55 is_stmt 0 view .LVU398
 1471 01e2 40F23670 		movw	r0, #1846
 1472 01e6 FFF7FEFF 		bl	SX126xReadRegister
 1473              	.LVL150:
 750:Drivers/sx126x/radio/sx126x/radio.c ****             }
 1474              		.loc 1 750 17 view .LVU399
 1475 01ea 00F0FB01 		and	r1, r0, #251
 1476 01ee 40F23670 		movw	r0, #1846
 1477 01f2 FFF7FEFF 		bl	SX126xWriteRegister
 1478              	.LVL151:
 1479 01f6 DCE7     		b	.L119
 1480              	.L126:
 1481              		.align	2
 1482              	.L125:
 1483 01f8 00000000 		.word	.LANCHOR6
 1484 01fc 00000000 		.word	.LANCHOR3
 1485 0200 00000000 		.word	.LANCHOR4
 1486 0204 00000000 		.word	.LANCHOR7
 1487 0208 00000000 		.word	.LANCHOR8
 1488 020c 00000000 		.word	.LANCHOR1
 1489              	.LBE3:
 1490              		.cfi_endproc
 1491              	.LFE7:
 1493              		.section	.text.RadioSetTxConfig,"ax",%progbits
 1494              		.align	1
 1495              		.global	RadioSetTxConfig
 1496              		.syntax unified
 1497              		.thumb
 1498              		.thumb_func
 1499              		.fpu fpv4-sp-d16
 1501              	RadioSetTxConfig:
 1502              	.LVL152:
 1503              	.LFB8:
 770:Drivers/sx126x/radio/sx126x/radio.c **** 
 1504              		.loc 1 770 1 is_stmt 1 view -0
 1505              		.cfi_startproc
 1506              		@ args = 36, pretend = 0, frame = 8
 1507              		@ frame_needed = 0, uses_anonymous_args = 0
 770:Drivers/sx126x/radio/sx126x/radio.c **** 
 1508              		.loc 1 770 1 is_stmt 0 view .LVU401
 1509 0000 2DE9F04F 		push	{r4, r5, r6, r7, r8, r9, r10, fp, lr}
 1510              	.LCFI18:
 1511              		.cfi_def_cfa_offset 36
 1512              		.cfi_offset 4, -36
 1513              		.cfi_offset 5, -32
 1514              		.cfi_offset 6, -28
 1515              		.cfi_offset 7, -24
 1516              		.cfi_offset 8, -20
ARM GAS  C:\Users\andywei\AppData\Local\Temp\ccCe1C2z.s 			page 54


 1517              		.cfi_offset 9, -16
 1518              		.cfi_offset 10, -12
 1519              		.cfi_offset 11, -8
 1520              		.cfi_offset 14, -4
 1521 0004 83B0     		sub	sp, sp, #12
 1522              	.LCFI19:
 1523              		.cfi_def_cfa_offset 48
 1524 0006 0C46     		mov	r4, r1
 1525 0008 BDF83880 		ldrh	r8, [sp, #56]
 1526 000c 9DF83C90 		ldrb	r9, [sp, #60]	@ zero_extendqisi2
 1527 0010 9DF840A0 		ldrb	r10, [sp, #64]	@ zero_extendqisi2
 772:Drivers/sx126x/radio/sx126x/radio.c ****     {
 1528              		.loc 1 772 5 is_stmt 1 view .LVU402
 1529 0014 0746     		mov	r7, r0
 1530 0016 E8B1     		cbz	r0, .L128
 1531 0018 0128     		cmp	r0, #1
 1532 001a 6ED0     		beq	.L129
 1533              	.LVL153:
 1534              	.L130:
 855:Drivers/sx126x/radio/sx126x/radio.c ****     {
 1535              		.loc 1 855 5 view .LVU403
 855:Drivers/sx126x/radio/sx126x/radio.c ****     {
 1536              		.loc 1 855 7 is_stmt 0 view .LVU404
 1537 001c 012F     		cmp	r7, #1
 1538 001e 05D1     		bne	.L141
 855:Drivers/sx126x/radio/sx126x/radio.c ****     {
 1539              		.loc 1 855 73 discriminator 1 view .LVU405
 1540 0020 674B     		ldr	r3, .L147
 1541 0022 93F8F130 		ldrb	r3, [r3, #241]	@ zero_extendqisi2
 855:Drivers/sx126x/radio/sx126x/radio.c ****     {
 1542              		.loc 1 855 33 discriminator 1 view .LVU406
 1543 0026 062B     		cmp	r3, #6
 1544 0028 00F0BF80 		beq	.L144
 1545              	.L141:
 861:Drivers/sx126x/radio/sx126x/radio.c ****     }
 1546              		.loc 1 861 9 is_stmt 1 view .LVU407
 861:Drivers/sx126x/radio/sx126x/radio.c ****     }
 1547              		.loc 1 861 49 is_stmt 0 view .LVU408
 1548 002c 40F68900 		movw	r0, #2185
 1549 0030 FFF7FEFF 		bl	SX126xReadRegister
 1550              	.LVL154:
 861:Drivers/sx126x/radio/sx126x/radio.c ****     }
 1551              		.loc 1 861 9 view .LVU409
 1552 0034 40F00401 		orr	r1, r0, #4
 1553 0038 C9B2     		uxtb	r1, r1
 1554 003a 40F68900 		movw	r0, #2185
 1555 003e FFF7FEFF 		bl	SX126xWriteRegister
 1556              	.LVL155:
 1557              	.L142:
 865:Drivers/sx126x/radio/sx126x/radio.c ****     TxTimeout = timeout;
 1558              		.loc 1 865 5 is_stmt 1 view .LVU410
 1559 0042 2046     		mov	r0, r4
 1560 0044 FFF7FEFF 		bl	SX126xSetRfTxPower
 1561              	.LVL156:
 866:Drivers/sx126x/radio/sx126x/radio.c **** }
 1562              		.loc 1 866 5 view .LVU411
 866:Drivers/sx126x/radio/sx126x/radio.c **** }
ARM GAS  C:\Users\andywei\AppData\Local\Temp\ccCe1C2z.s 			page 55


 1563              		.loc 1 866 15 is_stmt 0 view .LVU412
 1564 0048 149A     		ldr	r2, [sp, #80]
 1565 004a 5E4B     		ldr	r3, .L147+4
 1566 004c 1A60     		str	r2, [r3]
 867:Drivers/sx126x/radio/sx126x/radio.c **** 
 1567              		.loc 1 867 1 view .LVU413
 1568 004e 03B0     		add	sp, sp, #12
 1569              	.LCFI20:
 1570              		.cfi_remember_state
 1571              		.cfi_def_cfa_offset 36
 1572              		@ sp needed
 1573 0050 BDE8F08F 		pop	{r4, r5, r6, r7, r8, r9, r10, fp, pc}
 1574              	.LVL157:
 1575              	.L128:
 1576              	.LCFI21:
 1577              		.cfi_restore_state
 867:Drivers/sx126x/radio/sx126x/radio.c **** 
 1578              		.loc 1 867 1 view .LVU414
 1579 0054 1646     		mov	r6, r2
 1580              	.LBB4:
 775:Drivers/sx126x/radio/sx126x/radio.c ****             SX126x.ModulationParams.Params.Gfsk.BitRate = datarate;
 1581              		.loc 1 775 13 is_stmt 1 view .LVU415
 775:Drivers/sx126x/radio/sx126x/radio.c ****             SX126x.ModulationParams.Params.Gfsk.BitRate = datarate;
 1582              		.loc 1 775 48 is_stmt 0 view .LVU416
 1583 0056 5A4D     		ldr	r5, .L147
 1584 0058 4FF0000B 		mov	fp, #0
 1585 005c 85F8E0B0 		strb	fp, [r5, #224]
 776:Drivers/sx126x/radio/sx126x/radio.c **** 
 1586              		.loc 1 776 13 is_stmt 1 view .LVU417
 776:Drivers/sx126x/radio/sx126x/radio.c **** 
 1587              		.loc 1 776 57 is_stmt 0 view .LVU418
 1588 0060 0C9A     		ldr	r2, [sp, #48]
 1589              	.LVL158:
 776:Drivers/sx126x/radio/sx126x/radio.c **** 
 1590              		.loc 1 776 57 view .LVU419
 1591 0062 C5F8E420 		str	r2, [r5, #228]
 778:Drivers/sx126x/radio/sx126x/radio.c ****             SX126x.ModulationParams.Params.Gfsk.Bandwidth = RadioGetFskBandwidthRegValue( bandwidth
 1592              		.loc 1 778 13 is_stmt 1 view .LVU420
 778:Drivers/sx126x/radio/sx126x/radio.c ****             SX126x.ModulationParams.Params.Gfsk.Bandwidth = RadioGetFskBandwidthRegValue( bandwidth
 1593              		.loc 1 778 67 is_stmt 0 view .LVU421
 1594 0066 0B22     		movs	r2, #11
 1595 0068 85F8EC20 		strb	r2, [r5, #236]
 779:Drivers/sx126x/radio/sx126x/radio.c ****             SX126x.ModulationParams.Params.Gfsk.Fdev = fdev;
 1596              		.loc 1 779 13 is_stmt 1 view .LVU422
 779:Drivers/sx126x/radio/sx126x/radio.c ****             SX126x.ModulationParams.Params.Gfsk.Fdev = fdev;
 1597              		.loc 1 779 61 is_stmt 0 view .LVU423
 1598 006c 5800     		lsls	r0, r3, #1
 1599              	.LVL159:
 779:Drivers/sx126x/radio/sx126x/radio.c ****             SX126x.ModulationParams.Params.Gfsk.Fdev = fdev;
 1600              		.loc 1 779 61 view .LVU424
 1601 006e FFF7FEFF 		bl	RadioGetFskBandwidthRegValue
 1602              	.LVL160:
 779:Drivers/sx126x/radio/sx126x/radio.c ****             SX126x.ModulationParams.Params.Gfsk.Fdev = fdev;
 1603              		.loc 1 779 59 view .LVU425
 1604 0072 85F8ED00 		strb	r0, [r5, #237]
 780:Drivers/sx126x/radio/sx126x/radio.c **** 
 1605              		.loc 1 780 13 is_stmt 1 view .LVU426
ARM GAS  C:\Users\andywei\AppData\Local\Temp\ccCe1C2z.s 			page 56


 780:Drivers/sx126x/radio/sx126x/radio.c **** 
 1606              		.loc 1 780 54 is_stmt 0 view .LVU427
 1607 0076 C5F8E860 		str	r6, [r5, #232]
 782:Drivers/sx126x/radio/sx126x/radio.c ****             SX126x.PacketParams.Params.Gfsk.PreambleLength = ( preambleLen << 3 ); // convert byte 
 1608              		.loc 1 782 13 is_stmt 1 view .LVU428
 782:Drivers/sx126x/radio/sx126x/radio.c ****             SX126x.PacketParams.Params.Gfsk.PreambleLength = ( preambleLen << 3 ); // convert byte 
 1609              		.loc 1 782 44 is_stmt 0 view .LVU429
 1610 007a 85F8B8B0 		strb	fp, [r5, #184]
 783:Drivers/sx126x/radio/sx126x/radio.c ****             SX126x.PacketParams.Params.Gfsk.PreambleMinDetect = RADIO_PREAMBLE_DETECTOR_08_BITS;
 1611              		.loc 1 783 13 is_stmt 1 view .LVU430
 783:Drivers/sx126x/radio/sx126x/radio.c ****             SX126x.PacketParams.Params.Gfsk.PreambleMinDetect = RADIO_PREAMBLE_DETECTOR_08_BITS;
 1612              		.loc 1 783 76 is_stmt 0 view .LVU431
 1613 007e 4FEAC808 		lsl	r8, r8, #3
 783:Drivers/sx126x/radio/sx126x/radio.c ****             SX126x.PacketParams.Params.Gfsk.PreambleMinDetect = RADIO_PREAMBLE_DETECTOR_08_BITS;
 1614              		.loc 1 783 60 view .LVU432
 1615 0082 A5F8BA80 		strh	r8, [r5, #186]	@ movhi
 784:Drivers/sx126x/radio/sx126x/radio.c ****             SX126x.PacketParams.Params.Gfsk.SyncWordLength = 3 << 3 ; // convert byte into bit
 1616              		.loc 1 784 13 is_stmt 1 view .LVU433
 784:Drivers/sx126x/radio/sx126x/radio.c ****             SX126x.PacketParams.Params.Gfsk.SyncWordLength = 3 << 3 ; // convert byte into bit
 1617              		.loc 1 784 63 is_stmt 0 view .LVU434
 1618 0086 0423     		movs	r3, #4
 1619 0088 85F8BC30 		strb	r3, [r5, #188]
 785:Drivers/sx126x/radio/sx126x/radio.c ****             SX126x.PacketParams.Params.Gfsk.AddrComp = RADIO_ADDRESSCOMP_FILT_OFF;
 1620              		.loc 1 785 13 is_stmt 1 view .LVU435
 785:Drivers/sx126x/radio/sx126x/radio.c ****             SX126x.PacketParams.Params.Gfsk.AddrComp = RADIO_ADDRESSCOMP_FILT_OFF;
 1621              		.loc 1 785 60 is_stmt 0 view .LVU436
 1622 008c 1823     		movs	r3, #24
 1623 008e 85F8BD30 		strb	r3, [r5, #189]
 786:Drivers/sx126x/radio/sx126x/radio.c ****             SX126x.PacketParams.Params.Gfsk.HeaderType = ( fixLen == true ) ? RADIO_PACKET_FIXED_LE
 1624              		.loc 1 786 13 is_stmt 1 view .LVU437
 786:Drivers/sx126x/radio/sx126x/radio.c ****             SX126x.PacketParams.Params.Gfsk.HeaderType = ( fixLen == true ) ? RADIO_PACKET_FIXED_LE
 1625              		.loc 1 786 54 is_stmt 0 view .LVU438
 1626 0092 85F8BEB0 		strb	fp, [r5, #190]
 787:Drivers/sx126x/radio/sx126x/radio.c **** 
 1627              		.loc 1 787 13 is_stmt 1 view .LVU439
 787:Drivers/sx126x/radio/sx126x/radio.c **** 
 1628              		.loc 1 787 105 is_stmt 0 view .LVU440
 1629 0096 89F00109 		eor	r9, r9, #1
 787:Drivers/sx126x/radio/sx126x/radio.c **** 
 1630              		.loc 1 787 56 view .LVU441
 1631 009a 85F8BF90 		strb	r9, [r5, #191]
 789:Drivers/sx126x/radio/sx126x/radio.c ****             {
 1632              		.loc 1 789 13 is_stmt 1 view .LVU442
 789:Drivers/sx126x/radio/sx126x/radio.c ****             {
 1633              		.loc 1 789 15 is_stmt 0 view .LVU443
 1634 009e BAF1000F 		cmp	r10, #0
 1635 00a2 25D0     		beq	.L131
 791:Drivers/sx126x/radio/sx126x/radio.c ****             }
 1636              		.loc 1 791 17 is_stmt 1 view .LVU444
 791:Drivers/sx126x/radio/sx126x/radio.c ****             }
 1637              		.loc 1 791 59 is_stmt 0 view .LVU445
 1638 00a4 F222     		movs	r2, #242
 1639 00a6 85F8C120 		strb	r2, [r5, #193]
 1640              	.L132:
 797:Drivers/sx126x/radio/sx126x/radio.c **** 
 1641              		.loc 1 797 13 is_stmt 1 view .LVU446
 797:Drivers/sx126x/radio/sx126x/radio.c **** 
ARM GAS  C:\Users\andywei\AppData\Local\Temp\ccCe1C2z.s 			page 57


 1642              		.loc 1 797 52 is_stmt 0 view .LVU447
 1643 00aa 454D     		ldr	r5, .L147
 1644 00ac 0123     		movs	r3, #1
 1645 00ae 85F8C230 		strb	r3, [r5, #194]
 799:Drivers/sx126x/radio/sx126x/radio.c ****             RadioSetModem( ( SX126x.ModulationParams.PacketType == PACKET_TYPE_GFSK ) ? MODEM_FSK :
 1646              		.loc 1 799 13 is_stmt 1 view .LVU448
 1647 00b2 FFF7FEFF 		bl	RadioStandby
 1648              	.LVL161:
 800:Drivers/sx126x/radio/sx126x/radio.c ****             SX126xSetModulationParams( &SX126x.ModulationParams );
 1649              		.loc 1 800 13 view .LVU449
 800:Drivers/sx126x/radio/sx126x/radio.c ****             SX126xSetModulationParams( &SX126x.ModulationParams );
 1650              		.loc 1 800 53 is_stmt 0 view .LVU450
 1651 00b6 2E46     		mov	r6, r5
 1652              	.LVL162:
 800:Drivers/sx126x/radio/sx126x/radio.c ****             SX126xSetModulationParams( &SX126x.ModulationParams );
 1653              		.loc 1 800 53 view .LVU451
 1654 00b8 16F8E00F 		ldrb	r0, [r6, #224]!	@ zero_extendqisi2
 800:Drivers/sx126x/radio/sx126x/radio.c ****             SX126xSetModulationParams( &SX126x.ModulationParams );
 1655              		.loc 1 800 13 view .LVU452
 1656 00bc 0038     		subs	r0, r0, #0
 1657 00be 18BF     		it	ne
 1658 00c0 0120     		movne	r0, #1
 1659 00c2 FFF7FEFF 		bl	RadioSetModem
 1660              	.LVL163:
 801:Drivers/sx126x/radio/sx126x/radio.c ****             SX126xSetPacketParams( &SX126x.PacketParams );
 1661              		.loc 1 801 13 is_stmt 1 view .LVU453
 1662 00c6 3046     		mov	r0, r6
 1663 00c8 FFF7FEFF 		bl	SX126xSetModulationParams
 1664              	.LVL164:
 802:Drivers/sx126x/radio/sx126x/radio.c ****             SX126xSetSyncWord( ( uint8_t[] ){ 0xC1, 0x94, 0xC1, 0x00, 0x00, 0x00, 0x00, 0x00 } );
 1665              		.loc 1 802 13 view .LVU454
 1666 00cc 05F1B800 		add	r0, r5, #184
 1667 00d0 FFF7FEFF 		bl	SX126xSetPacketParams
 1668              	.LVL165:
 803:Drivers/sx126x/radio/sx126x/radio.c ****             SX126xSetWhiteningSeed( 0x01FF );
 1669              		.loc 1 803 13 view .LVU455
 803:Drivers/sx126x/radio/sx126x/radio.c ****             SX126xSetWhiteningSeed( 0x01FF );
 1670              		.loc 1 803 45 is_stmt 0 view .LVU456
 1671 00d4 3C4A     		ldr	r2, .L147+8
 1672 00d6 6B46     		mov	r3, sp
 1673 00d8 92E80300 		ldm	r2, {r0, r1}
 1674 00dc 83E80300 		stm	r3, {r0, r1}
 803:Drivers/sx126x/radio/sx126x/radio.c ****             SX126xSetWhiteningSeed( 0x01FF );
 1675              		.loc 1 803 13 view .LVU457
 1676 00e0 1846     		mov	r0, r3
 1677 00e2 FFF7FEFF 		bl	SX126xSetSyncWord
 1678              	.LVL166:
 804:Drivers/sx126x/radio/sx126x/radio.c ****             break;
 1679              		.loc 1 804 13 is_stmt 1 view .LVU458
 1680 00e6 40F2FF10 		movw	r0, #511
 1681 00ea FFF7FEFF 		bl	SX126xSetWhiteningSeed
 1682              	.LVL167:
 805:Drivers/sx126x/radio/sx126x/radio.c **** 
 1683              		.loc 1 805 13 view .LVU459
 1684 00ee 95E7     		b	.L130
 1685              	.LVL168:
 1686              	.L131:
ARM GAS  C:\Users\andywei\AppData\Local\Temp\ccCe1C2z.s 			page 58


 795:Drivers/sx126x/radio/sx126x/radio.c ****             }
 1687              		.loc 1 795 17 view .LVU460
 795:Drivers/sx126x/radio/sx126x/radio.c ****             }
 1688              		.loc 1 795 59 is_stmt 0 view .LVU461
 1689 00f0 334B     		ldr	r3, .L147
 1690 00f2 0122     		movs	r2, #1
 1691 00f4 83F8C120 		strb	r2, [r3, #193]
 1692 00f8 D7E7     		b	.L132
 1693              	.LVL169:
 1694              	.L129:
 808:Drivers/sx126x/radio/sx126x/radio.c ****             SX126x.ModulationParams.Params.LoRa.SpreadingFactor = ( RadioLoRaSpreadingFactors_t ) d
 1695              		.loc 1 808 13 is_stmt 1 view .LVU462
 808:Drivers/sx126x/radio/sx126x/radio.c ****             SX126x.ModulationParams.Params.LoRa.SpreadingFactor = ( RadioLoRaSpreadingFactors_t ) d
 1696              		.loc 1 808 48 is_stmt 0 view .LVU463
 1697 00fa 3149     		ldr	r1, .L147
 1698              	.LVL170:
 808:Drivers/sx126x/radio/sx126x/radio.c ****             SX126x.ModulationParams.Params.LoRa.SpreadingFactor = ( RadioLoRaSpreadingFactors_t ) d
 1699              		.loc 1 808 48 view .LVU464
 1700 00fc 0122     		movs	r2, #1
 1701              	.LVL171:
 808:Drivers/sx126x/radio/sx126x/radio.c ****             SX126x.ModulationParams.Params.LoRa.SpreadingFactor = ( RadioLoRaSpreadingFactors_t ) d
 1702              		.loc 1 808 48 view .LVU465
 1703 00fe 81F8E020 		strb	r2, [r1, #224]
 809:Drivers/sx126x/radio/sx126x/radio.c ****             SX126x.ModulationParams.Params.LoRa.Bandwidth =  Bandwidths[bandwidth];
 1704              		.loc 1 809 13 is_stmt 1 view .LVU466
 809:Drivers/sx126x/radio/sx126x/radio.c ****             SX126x.ModulationParams.Params.LoRa.Bandwidth =  Bandwidths[bandwidth];
 1705              		.loc 1 809 67 is_stmt 0 view .LVU467
 1706 0102 0C9A     		ldr	r2, [sp, #48]
 1707 0104 D2B2     		uxtb	r2, r2
 809:Drivers/sx126x/radio/sx126x/radio.c ****             SX126x.ModulationParams.Params.LoRa.Bandwidth =  Bandwidths[bandwidth];
 1708              		.loc 1 809 65 view .LVU468
 1709 0106 81F8F020 		strb	r2, [r1, #240]
 810:Drivers/sx126x/radio/sx126x/radio.c ****             SX126x.ModulationParams.Params.LoRa.CodingRate= ( RadioLoRaCodingRates_t )coderate;
 1710              		.loc 1 810 13 is_stmt 1 view .LVU469
 810:Drivers/sx126x/radio/sx126x/radio.c ****             SX126x.ModulationParams.Params.LoRa.CodingRate= ( RadioLoRaCodingRates_t )coderate;
 1711              		.loc 1 810 72 is_stmt 0 view .LVU470
 1712 010a 3048     		ldr	r0, .L147+12
 1713              	.LVL172:
 810:Drivers/sx126x/radio/sx126x/radio.c ****             SX126x.ModulationParams.Params.LoRa.CodingRate= ( RadioLoRaCodingRates_t )coderate;
 1714              		.loc 1 810 72 view .LVU471
 1715 010c C05C     		ldrb	r0, [r0, r3]	@ zero_extendqisi2
 810:Drivers/sx126x/radio/sx126x/radio.c ****             SX126x.ModulationParams.Params.LoRa.CodingRate= ( RadioLoRaCodingRates_t )coderate;
 1716              		.loc 1 810 59 view .LVU472
 1717 010e 81F8F100 		strb	r0, [r1, #241]
 811:Drivers/sx126x/radio/sx126x/radio.c **** 
 1718              		.loc 1 811 13 is_stmt 1 view .LVU473
 811:Drivers/sx126x/radio/sx126x/radio.c **** 
 1719              		.loc 1 811 59 is_stmt 0 view .LVU474
 1720 0112 9DF83400 		ldrb	r0, [sp, #52]	@ zero_extendqisi2
 1721 0116 81F8F200 		strb	r0, [r1, #242]
 813:Drivers/sx126x/radio/sx126x/radio.c ****             ( ( bandwidth == 1 ) && ( datarate == 12 ) ) )
 1722              		.loc 1 813 13 is_stmt 1 view .LVU475
 813:Drivers/sx126x/radio/sx126x/radio.c ****             ( ( bandwidth == 1 ) && ( datarate == 12 ) ) )
 1723              		.loc 1 813 15 is_stmt 0 view .LVU476
 1724 011a 1BB9     		cbnz	r3, .L134
 813:Drivers/sx126x/radio/sx126x/radio.c ****             ( ( bandwidth == 1 ) && ( datarate == 12 ) ) )
 1725              		.loc 1 813 62 discriminator 1 view .LVU477
ARM GAS  C:\Users\andywei\AppData\Local\Temp\ccCe1C2z.s 			page 59


 1726 011c 0C99     		ldr	r1, [sp, #48]
 1727 011e 0B39     		subs	r1, r1, #11
 813:Drivers/sx126x/radio/sx126x/radio.c ****             ( ( bandwidth == 1 ) && ( datarate == 12 ) ) )
 1728              		.loc 1 813 38 discriminator 1 view .LVU478
 1729 0120 0129     		cmp	r1, #1
 1730 0122 32D9     		bls	.L135
 1731              	.L134:
 813:Drivers/sx126x/radio/sx126x/radio.c ****             ( ( bandwidth == 1 ) && ( datarate == 12 ) ) )
 1732              		.loc 1 813 88 discriminator 3 view .LVU479
 1733 0124 012B     		cmp	r3, #1
 1734 0126 2DD0     		beq	.L145
 1735              	.LVL173:
 1736              	.L136:
 820:Drivers/sx126x/radio/sx126x/radio.c ****             }
 1737              		.loc 1 820 17 is_stmt 1 view .LVU480
 820:Drivers/sx126x/radio/sx126x/radio.c ****             }
 1738              		.loc 1 820 73 is_stmt 0 view .LVU481
 1739 0128 254B     		ldr	r3, .L147
 1740 012a 0021     		movs	r1, #0
 1741 012c 83F8F310 		strb	r1, [r3, #243]
 1742              	.L137:
 823:Drivers/sx126x/radio/sx126x/radio.c **** 
 1743              		.loc 1 823 13 is_stmt 1 view .LVU482
 823:Drivers/sx126x/radio/sx126x/radio.c **** 
 1744              		.loc 1 823 44 is_stmt 0 view .LVU483
 1745 0130 234B     		ldr	r3, .L147
 1746 0132 0121     		movs	r1, #1
 1747 0134 83F8B810 		strb	r1, [r3, #184]
 825:Drivers/sx126x/radio/sx126x/radio.c ****                 ( SX126x.ModulationParams.Params.LoRa.SpreadingFactor == LORA_SF6 ) )
 1748              		.loc 1 825 13 is_stmt 1 view .LVU484
 825:Drivers/sx126x/radio/sx126x/radio.c ****                 ( SX126x.ModulationParams.Params.LoRa.SpreadingFactor == LORA_SF6 ) )
 1749              		.loc 1 825 85 is_stmt 0 view .LVU485
 1750 0138 053A     		subs	r2, r2, #5
 1751 013a D2B2     		uxtb	r2, r2
 825:Drivers/sx126x/radio/sx126x/radio.c ****                 ( SX126x.ModulationParams.Params.LoRa.SpreadingFactor == LORA_SF6 ) )
 1752              		.loc 1 825 15 view .LVU486
 1753 013c 8A42     		cmp	r2, r1
 1754 013e 29D9     		bls	.L146
 839:Drivers/sx126x/radio/sx126x/radio.c ****             }
 1755              		.loc 1 839 17 is_stmt 1 view .LVU487
 839:Drivers/sx126x/radio/sx126x/radio.c ****             }
 1756              		.loc 1 839 64 is_stmt 0 view .LVU488
 1757 0140 1F4B     		ldr	r3, .L147
 1758 0142 A3F8C480 		strh	r8, [r3, #196]	@ movhi
 1759              	.L140:
 842:Drivers/sx126x/radio/sx126x/radio.c ****             SX126x.PacketParams.Params.LoRa.PayloadLength = MaxPayloadLength;
 1760              		.loc 1 842 13 is_stmt 1 view .LVU489
 842:Drivers/sx126x/radio/sx126x/radio.c ****             SX126x.PacketParams.Params.LoRa.PayloadLength = MaxPayloadLength;
 1761              		.loc 1 842 56 is_stmt 0 view .LVU490
 1762 0146 1E4D     		ldr	r5, .L147
 1763 0148 85F8C690 		strb	r9, [r5, #198]
 843:Drivers/sx126x/radio/sx126x/radio.c ****             SX126x.PacketParams.Params.LoRa.CrcMode = ( RadioLoRaCrcModes_t )crcOn;
 1764              		.loc 1 843 13 is_stmt 1 view .LVU491
 843:Drivers/sx126x/radio/sx126x/radio.c ****             SX126x.PacketParams.Params.LoRa.CrcMode = ( RadioLoRaCrcModes_t )crcOn;
 1765              		.loc 1 843 59 is_stmt 0 view .LVU492
 1766 014c 204B     		ldr	r3, .L147+16
 1767 014e 1B78     		ldrb	r3, [r3]	@ zero_extendqisi2
ARM GAS  C:\Users\andywei\AppData\Local\Temp\ccCe1C2z.s 			page 60


 1768 0150 85F8C730 		strb	r3, [r5, #199]
 844:Drivers/sx126x/radio/sx126x/radio.c ****             SX126x.PacketParams.Params.LoRa.InvertIQ = ( RadioLoRaIQModes_t )iqInverted;
 1769              		.loc 1 844 13 is_stmt 1 view .LVU493
 844:Drivers/sx126x/radio/sx126x/radio.c ****             SX126x.PacketParams.Params.LoRa.InvertIQ = ( RadioLoRaIQModes_t )iqInverted;
 1770              		.loc 1 844 53 is_stmt 0 view .LVU494
 1771 0154 85F8C8A0 		strb	r10, [r5, #200]
 845:Drivers/sx126x/radio/sx126x/radio.c **** 
 1772              		.loc 1 845 13 is_stmt 1 view .LVU495
 845:Drivers/sx126x/radio/sx126x/radio.c **** 
 1773              		.loc 1 845 54 is_stmt 0 view .LVU496
 1774 0158 9DF84C30 		ldrb	r3, [sp, #76]	@ zero_extendqisi2
 1775 015c 85F8C930 		strb	r3, [r5, #201]
 847:Drivers/sx126x/radio/sx126x/radio.c ****             RadioSetModem( ( SX126x.ModulationParams.PacketType == PACKET_TYPE_GFSK ) ? MODEM_FSK :
 1776              		.loc 1 847 13 is_stmt 1 view .LVU497
 1777 0160 FFF7FEFF 		bl	RadioStandby
 1778              	.LVL174:
 848:Drivers/sx126x/radio/sx126x/radio.c ****             SX126xSetModulationParams( &SX126x.ModulationParams );
 1779              		.loc 1 848 13 view .LVU498
 848:Drivers/sx126x/radio/sx126x/radio.c ****             SX126xSetModulationParams( &SX126x.ModulationParams );
 1780              		.loc 1 848 53 is_stmt 0 view .LVU499
 1781 0164 2E46     		mov	r6, r5
 1782 0166 16F8E00F 		ldrb	r0, [r6, #224]!	@ zero_extendqisi2
 848:Drivers/sx126x/radio/sx126x/radio.c ****             SX126xSetModulationParams( &SX126x.ModulationParams );
 1783              		.loc 1 848 13 view .LVU500
 1784 016a 0038     		subs	r0, r0, #0
 1785 016c 18BF     		it	ne
 1786 016e 0120     		movne	r0, #1
 1787 0170 FFF7FEFF 		bl	RadioSetModem
 1788              	.LVL175:
 849:Drivers/sx126x/radio/sx126x/radio.c ****             SX126xSetPacketParams( &SX126x.PacketParams );
 1789              		.loc 1 849 13 is_stmt 1 view .LVU501
 1790 0174 3046     		mov	r0, r6
 1791 0176 FFF7FEFF 		bl	SX126xSetModulationParams
 1792              	.LVL176:
 850:Drivers/sx126x/radio/sx126x/radio.c ****             break;
 1793              		.loc 1 850 13 view .LVU502
 1794 017a 05F1B800 		add	r0, r5, #184
 1795 017e FFF7FEFF 		bl	SX126xSetPacketParams
 1796              	.LVL177:
 851:Drivers/sx126x/radio/sx126x/radio.c ****     }
 1797              		.loc 1 851 13 view .LVU503
 1798 0182 4BE7     		b	.L130
 1799              	.LVL178:
 1800              	.L145:
 814:Drivers/sx126x/radio/sx126x/radio.c ****             {
 1801              		.loc 1 814 34 is_stmt 0 view .LVU504
 1802 0184 0C9B     		ldr	r3, [sp, #48]
 1803              	.LVL179:
 814:Drivers/sx126x/radio/sx126x/radio.c ****             {
 1804              		.loc 1 814 34 view .LVU505
 1805 0186 0C2B     		cmp	r3, #12
 1806 0188 CED1     		bne	.L136
 1807              	.L135:
 816:Drivers/sx126x/radio/sx126x/radio.c ****             }
 1808              		.loc 1 816 17 is_stmt 1 view .LVU506
 816:Drivers/sx126x/radio/sx126x/radio.c ****             }
 1809              		.loc 1 816 73 is_stmt 0 view .LVU507
ARM GAS  C:\Users\andywei\AppData\Local\Temp\ccCe1C2z.s 			page 61


 1810 018a 0D4B     		ldr	r3, .L147
 1811 018c 0121     		movs	r1, #1
 1812 018e 83F8F310 		strb	r1, [r3, #243]
 1813 0192 CDE7     		b	.L137
 1814              	.L146:
 828:Drivers/sx126x/radio/sx126x/radio.c ****                 {
 1815              		.loc 1 828 17 is_stmt 1 view .LVU508
 828:Drivers/sx126x/radio/sx126x/radio.c ****                 {
 1816              		.loc 1 828 19 is_stmt 0 view .LVU509
 1817 0194 B8F10B0F 		cmp	r8, #11
 1818 0198 03D8     		bhi	.L139
 830:Drivers/sx126x/radio/sx126x/radio.c ****                 }
 1819              		.loc 1 830 21 is_stmt 1 view .LVU510
 830:Drivers/sx126x/radio/sx126x/radio.c ****                 }
 1820              		.loc 1 830 68 is_stmt 0 view .LVU511
 1821 019a 0C22     		movs	r2, #12
 1822 019c A3F8C420 		strh	r2, [r3, #196]	@ movhi
 1823 01a0 D1E7     		b	.L140
 1824              	.L139:
 834:Drivers/sx126x/radio/sx126x/radio.c ****                 }
 1825              		.loc 1 834 21 is_stmt 1 view .LVU512
 834:Drivers/sx126x/radio/sx126x/radio.c ****                 }
 1826              		.loc 1 834 68 is_stmt 0 view .LVU513
 1827 01a2 074B     		ldr	r3, .L147
 1828 01a4 A3F8C480 		strh	r8, [r3, #196]	@ movhi
 1829 01a8 CDE7     		b	.L140
 1830              	.L144:
 834:Drivers/sx126x/radio/sx126x/radio.c ****                 }
 1831              		.loc 1 834 68 view .LVU514
 1832              	.LBE4:
 857:Drivers/sx126x/radio/sx126x/radio.c ****     }
 1833              		.loc 1 857 9 is_stmt 1 view .LVU515
 857:Drivers/sx126x/radio/sx126x/radio.c ****     }
 1834              		.loc 1 857 49 is_stmt 0 view .LVU516
 1835 01aa 40F68900 		movw	r0, #2185
 1836 01ae FFF7FEFF 		bl	SX126xReadRegister
 1837              	.LVL180:
 857:Drivers/sx126x/radio/sx126x/radio.c ****     }
 1838              		.loc 1 857 9 view .LVU517
 1839 01b2 00F0FB01 		and	r1, r0, #251
 1840 01b6 40F68900 		movw	r0, #2185
 1841 01ba FFF7FEFF 		bl	SX126xWriteRegister
 1842              	.LVL181:
 1843 01be 40E7     		b	.L142
 1844              	.L148:
 1845              		.align	2
 1846              	.L147:
 1847 01c0 00000000 		.word	.LANCHOR4
 1848 01c4 00000000 		.word	.LANCHOR9
 1849 01c8 00000000 		.word	.LANCHOR7
 1850 01cc 00000000 		.word	.LANCHOR1
 1851 01d0 00000000 		.word	.LANCHOR3
 1852              		.cfi_endproc
 1853              	.LFE8:
 1855              		.section	.text.RadioSend,"ax",%progbits
 1856              		.align	1
 1857              		.global	RadioSend
ARM GAS  C:\Users\andywei\AppData\Local\Temp\ccCe1C2z.s 			page 62


 1858              		.syntax unified
 1859              		.thumb
 1860              		.thumb_func
 1861              		.fpu fpv4-sp-d16
 1863              	RadioSend:
 1864              	.LVL182:
 1865              	.LFB14:
1029:Drivers/sx126x/radio/sx126x/radio.c ****     SX126xSetDioIrqParams( IRQ_TX_DONE | IRQ_RX_TX_TIMEOUT,
 1866              		.loc 1 1029 1 is_stmt 1 view -0
 1867              		.cfi_startproc
 1868              		@ args = 0, pretend = 0, frame = 0
 1869              		@ frame_needed = 0, uses_anonymous_args = 0
1029:Drivers/sx126x/radio/sx126x/radio.c ****     SX126xSetDioIrqParams( IRQ_TX_DONE | IRQ_RX_TX_TIMEOUT,
 1870              		.loc 1 1029 1 is_stmt 0 view .LVU519
 1871 0000 38B5     		push	{r3, r4, r5, lr}
 1872              	.LCFI22:
 1873              		.cfi_def_cfa_offset 16
 1874              		.cfi_offset 3, -16
 1875              		.cfi_offset 4, -12
 1876              		.cfi_offset 5, -8
 1877              		.cfi_offset 14, -4
 1878 0002 0546     		mov	r5, r0
 1879 0004 0C46     		mov	r4, r1
1030:Drivers/sx126x/radio/sx126x/radio.c ****                            IRQ_TX_DONE | IRQ_RX_TX_TIMEOUT,
 1880              		.loc 1 1030 5 is_stmt 1 view .LVU520
 1881 0006 0023     		movs	r3, #0
 1882 0008 1A46     		mov	r2, r3
 1883 000a 40F20121 		movw	r1, #513
 1884              	.LVL183:
1030:Drivers/sx126x/radio/sx126x/radio.c ****                            IRQ_TX_DONE | IRQ_RX_TX_TIMEOUT,
 1885              		.loc 1 1030 5 is_stmt 0 view .LVU521
 1886 000e 0846     		mov	r0, r1
 1887              	.LVL184:
1030:Drivers/sx126x/radio/sx126x/radio.c ****                            IRQ_TX_DONE | IRQ_RX_TX_TIMEOUT,
 1888              		.loc 1 1030 5 view .LVU522
 1889 0010 FFF7FEFF 		bl	SX126xSetDioIrqParams
 1890              	.LVL185:
1035:Drivers/sx126x/radio/sx126x/radio.c ****     {
 1891              		.loc 1 1035 5 is_stmt 1 view .LVU523
1035:Drivers/sx126x/radio/sx126x/radio.c ****     {
 1892              		.loc 1 1035 9 is_stmt 0 view .LVU524
 1893 0014 FFF7FEFF 		bl	SX126xGetPacketType
 1894              	.LVL186:
1035:Drivers/sx126x/radio/sx126x/radio.c ****     {
 1895              		.loc 1 1035 7 view .LVU525
 1896 0018 0128     		cmp	r0, #1
 1897 001a 0BD0     		beq	.L153
1041:Drivers/sx126x/radio/sx126x/radio.c ****     }
 1898              		.loc 1 1041 9 is_stmt 1 view .LVU526
1041:Drivers/sx126x/radio/sx126x/radio.c ****     }
 1899              		.loc 1 1041 55 is_stmt 0 view .LVU527
 1900 001c 074B     		ldr	r3, .L154
 1901 001e 83F8C040 		strb	r4, [r3, #192]
 1902              	.L151:
1043:Drivers/sx126x/radio/sx126x/radio.c **** 
 1903              		.loc 1 1043 5 is_stmt 1 view .LVU528
 1904 0022 0748     		ldr	r0, .L154+4
ARM GAS  C:\Users\andywei\AppData\Local\Temp\ccCe1C2z.s 			page 63


 1905 0024 FFF7FEFF 		bl	SX126xSetPacketParams
 1906              	.LVL187:
1045:Drivers/sx126x/radio/sx126x/radio.c ****     // TimerSetValue( &TxTimeoutTimer, TxTimeout );
 1907              		.loc 1 1045 5 view .LVU529
 1908 0028 0022     		movs	r2, #0
 1909 002a 2146     		mov	r1, r4
 1910 002c 2846     		mov	r0, r5
 1911 002e FFF7FEFF 		bl	SX126xSendPayload
 1912              	.LVL188:
1048:Drivers/sx126x/radio/sx126x/radio.c **** 
 1913              		.loc 1 1048 1 is_stmt 0 view .LVU530
 1914 0032 38BD     		pop	{r3, r4, r5, pc}
 1915              	.LVL189:
 1916              	.L153:
1037:Drivers/sx126x/radio/sx126x/radio.c ****     }
 1917              		.loc 1 1037 9 is_stmt 1 view .LVU531
1037:Drivers/sx126x/radio/sx126x/radio.c ****     }
 1918              		.loc 1 1037 55 is_stmt 0 view .LVU532
 1919 0034 014B     		ldr	r3, .L154
 1920 0036 83F8C740 		strb	r4, [r3, #199]
 1921 003a F2E7     		b	.L151
 1922              	.L155:
 1923              		.align	2
 1924              	.L154:
 1925 003c 00000000 		.word	.LANCHOR4
 1926 0040 B8000000 		.word	.LANCHOR4+184
 1927              		.cfi_endproc
 1928              	.LFE14:
 1930              		.section	.text.RadioSleep,"ax",%progbits
 1931              		.align	1
 1932              		.global	RadioSleep
 1933              		.syntax unified
 1934              		.thumb
 1935              		.thumb_func
 1936              		.fpu fpv4-sp-d16
 1938              	RadioSleep:
 1939              	.LFB15:
1051:Drivers/sx126x/radio/sx126x/radio.c ****     SleepParams_t params = { 0 };
 1940              		.loc 1 1051 1 is_stmt 1 view -0
 1941              		.cfi_startproc
 1942              		@ args = 0, pretend = 0, frame = 0
 1943              		@ frame_needed = 0, uses_anonymous_args = 0
 1944 0000 08B5     		push	{r3, lr}
 1945              	.LCFI23:
 1946              		.cfi_def_cfa_offset 8
 1947              		.cfi_offset 3, -8
 1948              		.cfi_offset 14, -4
1052:Drivers/sx126x/radio/sx126x/radio.c **** 
 1949              		.loc 1 1052 5 view .LVU534
1054:Drivers/sx126x/radio/sx126x/radio.c ****     SX126xSetSleep( params );
 1950              		.loc 1 1054 5 view .LVU535
1055:Drivers/sx126x/radio/sx126x/radio.c **** 
 1951              		.loc 1 1055 5 view .LVU536
 1952 0002 4FF00400 		mov	r0, #4
 1953 0006 FFF7FEFF 		bl	SX126xSetSleep
 1954              	.LVL190:
1057:Drivers/sx126x/radio/sx126x/radio.c **** }
ARM GAS  C:\Users\andywei\AppData\Local\Temp\ccCe1C2z.s 			page 64


 1955              		.loc 1 1057 5 view .LVU537
 1956 000a 0220     		movs	r0, #2
 1957 000c FFF7FEFF 		bl	DelayMs
 1958              	.LVL191:
1058:Drivers/sx126x/radio/sx126x/radio.c **** 
 1959              		.loc 1 1058 1 is_stmt 0 view .LVU538
 1960 0010 08BD     		pop	{r3, pc}
 1961              		.cfi_endproc
 1962              	.LFE15:
 1964              		.section	.text.RadioRx,"ax",%progbits
 1965              		.align	1
 1966              		.global	RadioRx
 1967              		.syntax unified
 1968              		.thumb
 1969              		.thumb_func
 1970              		.fpu fpv4-sp-d16
 1972              	RadioRx:
 1973              	.LVL192:
 1974              	.LFB17:
1066:Drivers/sx126x/radio/sx126x/radio.c ****     SX126xSetDioIrqParams( IRQ_RADIO_ALL, //IRQ_RX_DONE | IRQ_RX_TX_TIMEOUT,
 1975              		.loc 1 1066 1 is_stmt 1 view -0
 1976              		.cfi_startproc
 1977              		@ args = 0, pretend = 0, frame = 0
 1978              		@ frame_needed = 0, uses_anonymous_args = 0
1066:Drivers/sx126x/radio/sx126x/radio.c ****     SX126xSetDioIrqParams( IRQ_RADIO_ALL, //IRQ_RX_DONE | IRQ_RX_TX_TIMEOUT,
 1979              		.loc 1 1066 1 is_stmt 0 view .LVU540
 1980 0000 08B5     		push	{r3, lr}
 1981              	.LCFI24:
 1982              		.cfi_def_cfa_offset 8
 1983              		.cfi_offset 3, -8
 1984              		.cfi_offset 14, -4
1067:Drivers/sx126x/radio/sx126x/radio.c ****                            IRQ_RADIO_ALL, //IRQ_RX_DONE | IRQ_RX_TX_TIMEOUT,
 1985              		.loc 1 1067 5 is_stmt 1 view .LVU541
 1986 0002 0023     		movs	r3, #0
 1987 0004 1A46     		mov	r2, r3
 1988 0006 4FF6FF71 		movw	r1, #65535
 1989 000a 0846     		mov	r0, r1
 1990              	.LVL193:
1067:Drivers/sx126x/radio/sx126x/radio.c ****                            IRQ_RADIO_ALL, //IRQ_RX_DONE | IRQ_RX_TX_TIMEOUT,
 1991              		.loc 1 1067 5 is_stmt 0 view .LVU542
 1992 000c FFF7FEFF 		bl	SX126xSetDioIrqParams
 1993              	.LVL194:
1072:Drivers/sx126x/radio/sx126x/radio.c ****     {
 1994              		.loc 1 1072 5 is_stmt 1 view .LVU543
1076:Drivers/sx126x/radio/sx126x/radio.c **** 
 1995              		.loc 1 1076 5 view .LVU544
1078:Drivers/sx126x/radio/sx126x/radio.c ****     {
 1996              		.loc 1 1078 5 view .LVU545
1078:Drivers/sx126x/radio/sx126x/radio.c ****     {
 1997              		.loc 1 1078 22 is_stmt 0 view .LVU546
 1998 0010 064B     		ldr	r3, .L162
 1999 0012 1B78     		ldrb	r3, [r3]	@ zero_extendqisi2
1078:Drivers/sx126x/radio/sx126x/radio.c ****     {
 2000              		.loc 1 1078 7 view .LVU547
 2001 0014 23B1     		cbz	r3, .L159
1080:Drivers/sx126x/radio/sx126x/radio.c ****     }
 2002              		.loc 1 1080 9 is_stmt 1 view .LVU548
ARM GAS  C:\Users\andywei\AppData\Local\Temp\ccCe1C2z.s 			page 65


 2003 0016 6FF07F40 		mvn	r0, #-16777216
 2004 001a FFF7FEFF 		bl	SX126xSetRx
 2005              	.LVL195:
 2006              	.L158:
1086:Drivers/sx126x/radio/sx126x/radio.c **** 
 2007              		.loc 1 1086 1 is_stmt 0 view .LVU549
 2008 001e 08BD     		pop	{r3, pc}
 2009              	.L159:
1084:Drivers/sx126x/radio/sx126x/radio.c ****     }
 2010              		.loc 1 1084 9 is_stmt 1 view .LVU550
 2011 0020 034B     		ldr	r3, .L162+4
 2012 0022 1868     		ldr	r0, [r3]
 2013 0024 8001     		lsls	r0, r0, #6
 2014 0026 FFF7FEFF 		bl	SX126xSetRx
 2015              	.LVL196:
1086:Drivers/sx126x/radio/sx126x/radio.c **** 
 2016              		.loc 1 1086 1 is_stmt 0 view .LVU551
 2017 002a F8E7     		b	.L158
 2018              	.L163:
 2019              		.align	2
 2020              	.L162:
 2021 002c 00000000 		.word	.LANCHOR6
 2022 0030 00000000 		.word	.LANCHOR8
 2023              		.cfi_endproc
 2024              	.LFE17:
 2026              		.section	.text.RadioRxBoosted,"ax",%progbits
 2027              		.align	1
 2028              		.global	RadioRxBoosted
 2029              		.syntax unified
 2030              		.thumb
 2031              		.thumb_func
 2032              		.fpu fpv4-sp-d16
 2034              	RadioRxBoosted:
 2035              	.LVL197:
 2036              	.LFB18:
1089:Drivers/sx126x/radio/sx126x/radio.c ****     SX126xSetDioIrqParams( IRQ_RADIO_ALL, //IRQ_RX_DONE | IRQ_RX_TX_TIMEOUT,
 2037              		.loc 1 1089 1 is_stmt 1 view -0
 2038              		.cfi_startproc
 2039              		@ args = 0, pretend = 0, frame = 0
 2040              		@ frame_needed = 0, uses_anonymous_args = 0
1089:Drivers/sx126x/radio/sx126x/radio.c ****     SX126xSetDioIrqParams( IRQ_RADIO_ALL, //IRQ_RX_DONE | IRQ_RX_TX_TIMEOUT,
 2041              		.loc 1 1089 1 is_stmt 0 view .LVU553
 2042 0000 08B5     		push	{r3, lr}
 2043              	.LCFI25:
 2044              		.cfi_def_cfa_offset 8
 2045              		.cfi_offset 3, -8
 2046              		.cfi_offset 14, -4
1090:Drivers/sx126x/radio/sx126x/radio.c ****                            IRQ_RADIO_ALL, //IRQ_RX_DONE | IRQ_RX_TX_TIMEOUT,
 2047              		.loc 1 1090 5 is_stmt 1 view .LVU554
 2048 0002 0023     		movs	r3, #0
 2049 0004 1A46     		mov	r2, r3
 2050 0006 4FF6FF71 		movw	r1, #65535
 2051 000a 0846     		mov	r0, r1
 2052              	.LVL198:
1090:Drivers/sx126x/radio/sx126x/radio.c ****                            IRQ_RADIO_ALL, //IRQ_RX_DONE | IRQ_RX_TX_TIMEOUT,
 2053              		.loc 1 1090 5 is_stmt 0 view .LVU555
 2054 000c FFF7FEFF 		bl	SX126xSetDioIrqParams
ARM GAS  C:\Users\andywei\AppData\Local\Temp\ccCe1C2z.s 			page 66


 2055              	.LVL199:
1095:Drivers/sx126x/radio/sx126x/radio.c ****     {
 2056              		.loc 1 1095 5 is_stmt 1 view .LVU556
1099:Drivers/sx126x/radio/sx126x/radio.c **** 
 2057              		.loc 1 1099 5 view .LVU557
1101:Drivers/sx126x/radio/sx126x/radio.c ****     {
 2058              		.loc 1 1101 5 view .LVU558
1101:Drivers/sx126x/radio/sx126x/radio.c ****     {
 2059              		.loc 1 1101 22 is_stmt 0 view .LVU559
 2060 0010 064B     		ldr	r3, .L168
 2061 0012 1B78     		ldrb	r3, [r3]	@ zero_extendqisi2
1101:Drivers/sx126x/radio/sx126x/radio.c ****     {
 2062              		.loc 1 1101 7 view .LVU560
 2063 0014 23B1     		cbz	r3, .L165
1103:Drivers/sx126x/radio/sx126x/radio.c ****     }
 2064              		.loc 1 1103 9 is_stmt 1 view .LVU561
 2065 0016 6FF07F40 		mvn	r0, #-16777216
 2066 001a FFF7FEFF 		bl	SX126xSetRxBoosted
 2067              	.LVL200:
 2068              	.L164:
1109:Drivers/sx126x/radio/sx126x/radio.c **** 
 2069              		.loc 1 1109 1 is_stmt 0 view .LVU562
 2070 001e 08BD     		pop	{r3, pc}
 2071              	.L165:
1107:Drivers/sx126x/radio/sx126x/radio.c ****     }
 2072              		.loc 1 1107 9 is_stmt 1 view .LVU563
 2073 0020 034B     		ldr	r3, .L168+4
 2074 0022 1868     		ldr	r0, [r3]
 2075 0024 8001     		lsls	r0, r0, #6
 2076 0026 FFF7FEFF 		bl	SX126xSetRxBoosted
 2077              	.LVL201:
1109:Drivers/sx126x/radio/sx126x/radio.c **** 
 2078              		.loc 1 1109 1 is_stmt 0 view .LVU564
 2079 002a F8E7     		b	.L164
 2080              	.L169:
 2081              		.align	2
 2082              	.L168:
 2083 002c 00000000 		.word	.LANCHOR6
 2084 0030 00000000 		.word	.LANCHOR8
 2085              		.cfi_endproc
 2086              	.LFE18:
 2088              		.section	.text.RadioSetRxDutyCycle,"ax",%progbits
 2089              		.align	1
 2090              		.global	RadioSetRxDutyCycle
 2091              		.syntax unified
 2092              		.thumb
 2093              		.thumb_func
 2094              		.fpu fpv4-sp-d16
 2096              	RadioSetRxDutyCycle:
 2097              	.LVL202:
 2098              	.LFB19:
1112:Drivers/sx126x/radio/sx126x/radio.c ****     SX126xSetRxDutyCycle( rxTime, sleepTime );
 2099              		.loc 1 1112 1 is_stmt 1 view -0
 2100              		.cfi_startproc
 2101              		@ args = 0, pretend = 0, frame = 0
 2102              		@ frame_needed = 0, uses_anonymous_args = 0
1112:Drivers/sx126x/radio/sx126x/radio.c ****     SX126xSetRxDutyCycle( rxTime, sleepTime );
ARM GAS  C:\Users\andywei\AppData\Local\Temp\ccCe1C2z.s 			page 67


 2103              		.loc 1 1112 1 is_stmt 0 view .LVU566
 2104 0000 08B5     		push	{r3, lr}
 2105              	.LCFI26:
 2106              		.cfi_def_cfa_offset 8
 2107              		.cfi_offset 3, -8
 2108              		.cfi_offset 14, -4
1113:Drivers/sx126x/radio/sx126x/radio.c **** }
 2109              		.loc 1 1113 5 is_stmt 1 view .LVU567
 2110 0002 FFF7FEFF 		bl	SX126xSetRxDutyCycle
 2111              	.LVL203:
1114:Drivers/sx126x/radio/sx126x/radio.c **** 
 2112              		.loc 1 1114 1 is_stmt 0 view .LVU568
 2113 0006 08BD     		pop	{r3, pc}
 2114              		.cfi_endproc
 2115              	.LFE19:
 2117              		.section	.text.RadioReadBuffer,"ax",%progbits
 2118              		.align	1
 2119              		.global	RadioReadBuffer
 2120              		.syntax unified
 2121              		.thumb
 2122              		.thumb_func
 2123              		.fpu fpv4-sp-d16
 2125              	RadioReadBuffer:
 2126              	.LVL204:
 2127              	.LFB27:
1185:Drivers/sx126x/radio/sx126x/radio.c ****     SX126xReadRegisters( addr, buffer, size );
 2128              		.loc 1 1185 1 is_stmt 1 view -0
 2129              		.cfi_startproc
 2130              		@ args = 0, pretend = 0, frame = 0
 2131              		@ frame_needed = 0, uses_anonymous_args = 0
1185:Drivers/sx126x/radio/sx126x/radio.c ****     SX126xReadRegisters( addr, buffer, size );
 2132              		.loc 1 1185 1 is_stmt 0 view .LVU570
 2133 0000 08B5     		push	{r3, lr}
 2134              	.LCFI27:
 2135              		.cfi_def_cfa_offset 8
 2136              		.cfi_offset 3, -8
 2137              		.cfi_offset 14, -4
1186:Drivers/sx126x/radio/sx126x/radio.c **** }
 2138              		.loc 1 1186 5 is_stmt 1 view .LVU571
 2139 0002 80B2     		uxth	r0, r0
 2140              	.LVL205:
1186:Drivers/sx126x/radio/sx126x/radio.c **** }
 2141              		.loc 1 1186 5 is_stmt 0 view .LVU572
 2142 0004 FFF7FEFF 		bl	SX126xReadRegisters
 2143              	.LVL206:
1187:Drivers/sx126x/radio/sx126x/radio.c **** 
 2144              		.loc 1 1187 1 view .LVU573
 2145 0008 08BD     		pop	{r3, pc}
 2146              		.cfi_endproc
 2147              	.LFE27:
 2149              		.section	.text.RadioWriteBuffer,"ax",%progbits
 2150              		.align	1
 2151              		.global	RadioWriteBuffer
 2152              		.syntax unified
 2153              		.thumb
 2154              		.thumb_func
 2155              		.fpu fpv4-sp-d16
ARM GAS  C:\Users\andywei\AppData\Local\Temp\ccCe1C2z.s 			page 68


 2157              	RadioWriteBuffer:
 2158              	.LVL207:
 2159              	.LFB26:
1180:Drivers/sx126x/radio/sx126x/radio.c ****     SX126xWriteRegisters( addr, buffer, size );
 2160              		.loc 1 1180 1 is_stmt 1 view -0
 2161              		.cfi_startproc
 2162              		@ args = 0, pretend = 0, frame = 0
 2163              		@ frame_needed = 0, uses_anonymous_args = 0
1180:Drivers/sx126x/radio/sx126x/radio.c ****     SX126xWriteRegisters( addr, buffer, size );
 2164              		.loc 1 1180 1 is_stmt 0 view .LVU575
 2165 0000 08B5     		push	{r3, lr}
 2166              	.LCFI28:
 2167              		.cfi_def_cfa_offset 8
 2168              		.cfi_offset 3, -8
 2169              		.cfi_offset 14, -4
1181:Drivers/sx126x/radio/sx126x/radio.c **** }
 2170              		.loc 1 1181 5 is_stmt 1 view .LVU576
 2171 0002 80B2     		uxth	r0, r0
 2172              	.LVL208:
1181:Drivers/sx126x/radio/sx126x/radio.c **** }
 2173              		.loc 1 1181 5 is_stmt 0 view .LVU577
 2174 0004 FFF7FEFF 		bl	SX126xWriteRegisters
 2175              	.LVL209:
1182:Drivers/sx126x/radio/sx126x/radio.c **** 
 2176              		.loc 1 1182 1 view .LVU578
 2177 0008 08BD     		pop	{r3, pc}
 2178              		.cfi_endproc
 2179              	.LFE26:
 2181              		.section	.text.RadioStartCad,"ax",%progbits
 2182              		.align	1
 2183              		.global	RadioStartCad
 2184              		.syntax unified
 2185              		.thumb
 2186              		.thumb_func
 2187              		.fpu fpv4-sp-d16
 2189              	RadioStartCad:
 2190              	.LFB21:
1147:Drivers/sx126x/radio/sx126x/radio.c ****     SX126xSetDioIrqParams( IRQ_CAD_DONE | IRQ_CAD_ACTIVITY_DETECTED, IRQ_CAD_DONE | IRQ_CAD_ACTIVIT
 2191              		.loc 1 1147 1 is_stmt 1 view -0
 2192              		.cfi_startproc
 2193              		@ args = 0, pretend = 0, frame = 0
 2194              		@ frame_needed = 0, uses_anonymous_args = 0
 2195 0000 08B5     		push	{r3, lr}
 2196              	.LCFI29:
 2197              		.cfi_def_cfa_offset 8
 2198              		.cfi_offset 3, -8
 2199              		.cfi_offset 14, -4
1148:Drivers/sx126x/radio/sx126x/radio.c ****     SX126xSetCad( );
 2200              		.loc 1 1148 5 view .LVU580
 2201 0002 0023     		movs	r3, #0
 2202 0004 1A46     		mov	r2, r3
 2203 0006 4FF4C071 		mov	r1, #384
 2204 000a 0846     		mov	r0, r1
 2205 000c FFF7FEFF 		bl	SX126xSetDioIrqParams
 2206              	.LVL210:
1149:Drivers/sx126x/radio/sx126x/radio.c **** }
 2207              		.loc 1 1149 5 view .LVU581
ARM GAS  C:\Users\andywei\AppData\Local\Temp\ccCe1C2z.s 			page 69


 2208 0010 FFF7FEFF 		bl	SX126xSetCad
 2209              	.LVL211:
1150:Drivers/sx126x/radio/sx126x/radio.c **** 
 2210              		.loc 1 1150 1 is_stmt 0 view .LVU582
 2211 0014 08BD     		pop	{r3, pc}
 2212              		.cfi_endproc
 2213              	.LFE21:
 2215              		.section	.text.RadioSetTxContinuousWave,"ax",%progbits
 2216              		.align	1
 2217              		.global	RadioSetTxContinuousWave
 2218              		.syntax unified
 2219              		.thumb
 2220              		.thumb_func
 2221              		.fpu fpv4-sp-d16
 2223              	RadioSetTxContinuousWave:
 2224              	.LVL212:
 2225              	.LFB22:
1153:Drivers/sx126x/radio/sx126x/radio.c ****     uint32_t timeout = ( uint32_t )time * 1000;
 2226              		.loc 1 1153 1 is_stmt 1 view -0
 2227              		.cfi_startproc
 2228              		@ args = 0, pretend = 0, frame = 0
 2229              		@ frame_needed = 0, uses_anonymous_args = 0
1153:Drivers/sx126x/radio/sx126x/radio.c ****     uint32_t timeout = ( uint32_t )time * 1000;
 2230              		.loc 1 1153 1 is_stmt 0 view .LVU584
 2231 0000 10B5     		push	{r4, lr}
 2232              	.LCFI30:
 2233              		.cfi_def_cfa_offset 8
 2234              		.cfi_offset 4, -8
 2235              		.cfi_offset 14, -4
 2236 0002 0C46     		mov	r4, r1
1154:Drivers/sx126x/radio/sx126x/radio.c **** 
 2237              		.loc 1 1154 5 is_stmt 1 view .LVU585
 2238              	.LVL213:
1156:Drivers/sx126x/radio/sx126x/radio.c ****     SX126xSetRfTxPower( power );
 2239              		.loc 1 1156 5 view .LVU586
 2240 0004 FFF7FEFF 		bl	SX126xSetRfFrequency
 2241              	.LVL214:
1157:Drivers/sx126x/radio/sx126x/radio.c ****     SX126xSetTxContinuousWave( );
 2242              		.loc 1 1157 5 view .LVU587
 2243 0008 2046     		mov	r0, r4
 2244 000a FFF7FEFF 		bl	SX126xSetRfTxPower
 2245              	.LVL215:
1158:Drivers/sx126x/radio/sx126x/radio.c **** 
 2246              		.loc 1 1158 5 view .LVU588
 2247 000e FFF7FEFF 		bl	SX126xSetTxContinuousWave
 2248              	.LVL216:
1162:Drivers/sx126x/radio/sx126x/radio.c **** 
 2249              		.loc 1 1162 1 is_stmt 0 view .LVU589
 2250 0012 10BD     		pop	{r4, pc}
 2251              		.cfi_endproc
 2252              	.LFE22:
 2254              		.section	.text.RadioRssi,"ax",%progbits
 2255              		.align	1
 2256              		.global	RadioRssi
 2257              		.syntax unified
 2258              		.thumb
 2259              		.thumb_func
ARM GAS  C:\Users\andywei\AppData\Local\Temp\ccCe1C2z.s 			page 70


 2260              		.fpu fpv4-sp-d16
 2262              	RadioRssi:
 2263              	.LVL217:
 2264              	.LFB23:
1165:Drivers/sx126x/radio/sx126x/radio.c ****     return SX126xGetRssiInst( );
 2265              		.loc 1 1165 1 is_stmt 1 view -0
 2266              		.cfi_startproc
 2267              		@ args = 0, pretend = 0, frame = 0
 2268              		@ frame_needed = 0, uses_anonymous_args = 0
1165:Drivers/sx126x/radio/sx126x/radio.c ****     return SX126xGetRssiInst( );
 2269              		.loc 1 1165 1 is_stmt 0 view .LVU591
 2270 0000 08B5     		push	{r3, lr}
 2271              	.LCFI31:
 2272              		.cfi_def_cfa_offset 8
 2273              		.cfi_offset 3, -8
 2274              		.cfi_offset 14, -4
1166:Drivers/sx126x/radio/sx126x/radio.c **** }
 2275              		.loc 1 1166 5 is_stmt 1 view .LVU592
1166:Drivers/sx126x/radio/sx126x/radio.c **** }
 2276              		.loc 1 1166 12 is_stmt 0 view .LVU593
 2277 0002 FFF7FEFF 		bl	SX126xGetRssiInst
 2278              	.LVL218:
1167:Drivers/sx126x/radio/sx126x/radio.c **** 
 2279              		.loc 1 1167 1 view .LVU594
 2280 0006 00B2     		sxth	r0, r0
 2281 0008 08BD     		pop	{r3, pc}
 2282              		.cfi_endproc
 2283              	.LFE23:
 2285              		.section	.text.RadioIsChannelFree,"ax",%progbits
 2286              		.align	1
 2287              		.global	RadioIsChannelFree
 2288              		.syntax unified
 2289              		.thumb
 2290              		.thumb_func
 2291              		.fpu fpv4-sp-d16
 2293              	RadioIsChannelFree:
 2294              	.LVL219:
 2295              	.LFB5:
 587:Drivers/sx126x/radio/sx126x/radio.c ****     bool     status           = true;
 2296              		.loc 1 587 1 is_stmt 1 view -0
 2297              		.cfi_startproc
 2298              		@ args = 0, pretend = 0, frame = 0
 2299              		@ frame_needed = 0, uses_anonymous_args = 0
 587:Drivers/sx126x/radio/sx126x/radio.c ****     bool     status           = true;
 2300              		.loc 1 587 1 is_stmt 0 view .LVU596
 2301 0000 F0B5     		push	{r4, r5, r6, r7, lr}
 2302              	.LCFI32:
 2303              		.cfi_def_cfa_offset 20
 2304              		.cfi_offset 4, -20
 2305              		.cfi_offset 5, -16
 2306              		.cfi_offset 6, -12
 2307              		.cfi_offset 7, -8
 2308              		.cfi_offset 14, -4
 2309 0002 8BB0     		sub	sp, sp, #44
 2310              	.LCFI33:
 2311              		.cfi_def_cfa_offset 64
 2312 0004 0546     		mov	r5, r0
ARM GAS  C:\Users\andywei\AppData\Local\Temp\ccCe1C2z.s 			page 71


 2313 0006 0E46     		mov	r6, r1
 2314 0008 1446     		mov	r4, r2
 588:Drivers/sx126x/radio/sx126x/radio.c ****     int16_t  rssi             = 0;
 2315              		.loc 1 588 5 is_stmt 1 view .LVU597
 2316              	.LVL220:
 589:Drivers/sx126x/radio/sx126x/radio.c ****     uint32_t carrierSenseTime = 0;
 2317              		.loc 1 589 5 view .LVU598
 590:Drivers/sx126x/radio/sx126x/radio.c **** 
 2318              		.loc 1 590 5 view .LVU599
 592:Drivers/sx126x/radio/sx126x/radio.c **** 
 2319              		.loc 1 592 5 view .LVU600
 2320 000a 0020     		movs	r0, #0
 2321              	.LVL221:
 592:Drivers/sx126x/radio/sx126x/radio.c **** 
 2322              		.loc 1 592 5 is_stmt 0 view .LVU601
 2323 000c FFF7FEFF 		bl	RadioSetModem
 2324              	.LVL222:
 594:Drivers/sx126x/radio/sx126x/radio.c **** 
 2325              		.loc 1 594 5 is_stmt 1 view .LVU602
 2326 0010 2846     		mov	r0, r5
 2327 0012 FFF7FEFF 		bl	RadioSetChannel
 2328              	.LVL223:
 597:Drivers/sx126x/radio/sx126x/radio.c ****                       0, false, 0, 0, false, true );
 2329              		.loc 1 597 5 view .LVU603
 2330 0016 0127     		movs	r7, #1
 2331 0018 0997     		str	r7, [sp, #36]
 2332 001a 0025     		movs	r5, #0
 2333              	.LVL224:
 597:Drivers/sx126x/radio/sx126x/radio.c ****                       0, false, 0, 0, false, true );
 2334              		.loc 1 597 5 is_stmt 0 view .LVU604
 2335 001c 0895     		str	r5, [sp, #32]
 2336 001e 0795     		str	r5, [sp, #28]
 2337 0020 0695     		str	r5, [sp, #24]
 2338 0022 0595     		str	r5, [sp, #20]
 2339 0024 0495     		str	r5, [sp, #16]
 2340 0026 0395     		str	r5, [sp, #12]
 2341 0028 0295     		str	r5, [sp, #8]
 2342 002a 0323     		movs	r3, #3
 2343 002c 0193     		str	r3, [sp, #4]
 2344 002e 0096     		str	r6, [sp]
 2345 0030 2B46     		mov	r3, r5
 2346 0032 4FF41672 		mov	r2, #600
 2347 0036 3146     		mov	r1, r6
 2348 0038 2846     		mov	r0, r5
 2349 003a FFF7FEFF 		bl	RadioSetRxConfig
 2350              	.LVL225:
 599:Drivers/sx126x/radio/sx126x/radio.c **** 
 2351              		.loc 1 599 5 is_stmt 1 view .LVU605
 2352 003e 2846     		mov	r0, r5
 2353 0040 FFF7FEFF 		bl	RadioRx
 2354              	.LVL226:
 601:Drivers/sx126x/radio/sx126x/radio.c **** 
 2355              		.loc 1 601 5 view .LVU606
 2356 0044 3846     		mov	r0, r7
 2357 0046 FFF7FEFF 		bl	DelayMs
 2358              	.LVL227:
 2359              	.L183:
ARM GAS  C:\Users\andywei\AppData\Local\Temp\ccCe1C2z.s 			page 72


 607:Drivers/sx126x/radio/sx126x/radio.c ****     {
 2360              		.loc 1 607 5 view .LVU607
 609:Drivers/sx126x/radio/sx126x/radio.c **** 
 2361              		.loc 1 609 9 view .LVU608
 609:Drivers/sx126x/radio/sx126x/radio.c **** 
 2362              		.loc 1 609 16 is_stmt 0 view .LVU609
 2363 004a 0020     		movs	r0, #0
 2364 004c FFF7FEFF 		bl	RadioRssi
 2365              	.LVL228:
 611:Drivers/sx126x/radio/sx126x/radio.c ****         {
 2366              		.loc 1 611 9 is_stmt 1 view .LVU610
 611:Drivers/sx126x/radio/sx126x/radio.c ****         {
 2367              		.loc 1 611 11 is_stmt 0 view .LVU611
 2368 0050 A042     		cmp	r0, r4
 2369 0052 FADD     		ble	.L183
 613:Drivers/sx126x/radio/sx126x/radio.c ****             break;
 2370              		.loc 1 613 13 is_stmt 1 view .LVU612
 2371              	.LVL229:
 614:Drivers/sx126x/radio/sx126x/radio.c ****         }
 2372              		.loc 1 614 13 view .LVU613
 617:Drivers/sx126x/radio/sx126x/radio.c ****     return status;
 2373              		.loc 1 617 5 view .LVU614
 2374 0054 FFF7FEFF 		bl	RadioSleep
 2375              	.LVL230:
 618:Drivers/sx126x/radio/sx126x/radio.c **** }
 2376              		.loc 1 618 5 view .LVU615
 619:Drivers/sx126x/radio/sx126x/radio.c **** 
 2377              		.loc 1 619 1 is_stmt 0 view .LVU616
 2378 0058 0020     		movs	r0, #0
 2379 005a 0BB0     		add	sp, sp, #44
 2380              	.LCFI34:
 2381              		.cfi_def_cfa_offset 20
 2382              		@ sp needed
 2383 005c F0BD     		pop	{r4, r5, r6, r7, pc}
 619:Drivers/sx126x/radio/sx126x/radio.c **** 
 2384              		.loc 1 619 1 view .LVU617
 2385              		.cfi_endproc
 2386              	.LFE5:
 2388              		.section	.text.RadioGetWakeupTime,"ax",%progbits
 2389              		.align	1
 2390              		.global	RadioGetWakeupTime
 2391              		.syntax unified
 2392              		.thumb
 2393              		.thumb_func
 2394              		.fpu fpv4-sp-d16
 2396              	RadioGetWakeupTime:
 2397              	.LFB30:
1226:Drivers/sx126x/radio/sx126x/radio.c ****     return SX126xGetBoardTcxoWakeupTime( ) + RADIO_WAKEUP_TIME;
 2398              		.loc 1 1226 1 is_stmt 1 view -0
 2399              		.cfi_startproc
 2400              		@ args = 0, pretend = 0, frame = 0
 2401              		@ frame_needed = 0, uses_anonymous_args = 0
 2402 0000 08B5     		push	{r3, lr}
 2403              	.LCFI35:
 2404              		.cfi_def_cfa_offset 8
 2405              		.cfi_offset 3, -8
 2406              		.cfi_offset 14, -4
ARM GAS  C:\Users\andywei\AppData\Local\Temp\ccCe1C2z.s 			page 73


1227:Drivers/sx126x/radio/sx126x/radio.c **** }
 2407              		.loc 1 1227 5 view .LVU619
1227:Drivers/sx126x/radio/sx126x/radio.c **** }
 2408              		.loc 1 1227 12 is_stmt 0 view .LVU620
 2409 0002 FFF7FEFF 		bl	SX126xGetBoardTcxoWakeupTime
 2410              	.LVL231:
1228:Drivers/sx126x/radio/sx126x/radio.c **** 
 2411              		.loc 1 1228 1 view .LVU621
 2412 0006 0330     		adds	r0, r0, #3
 2413 0008 08BD     		pop	{r3, pc}
 2414              		.cfi_endproc
 2415              	.LFE30:
 2417              		.section	.text.RadioIrqProcess,"ax",%progbits
 2418              		.align	1
 2419              		.global	RadioIrqProcess
 2420              		.syntax unified
 2421              		.thumb
 2422              		.thumb_func
 2423              		.fpu fpv4-sp-d16
 2425              	RadioIrqProcess:
 2426              	.LFB34:
1250:Drivers/sx126x/radio/sx126x/radio.c **** 
1251:Drivers/sx126x/radio/sx126x/radio.c **** void RadioIrqProcess( void )
1252:Drivers/sx126x/radio/sx126x/radio.c **** {
 2427              		.loc 1 1252 1 is_stmt 1 view -0
 2428              		.cfi_startproc
 2429              		@ args = 0, pretend = 0, frame = 8
 2430              		@ frame_needed = 0, uses_anonymous_args = 0
1253:Drivers/sx126x/radio/sx126x/radio.c ****     CRITICAL_SECTION_BEGIN( );
 2431              		.loc 1 1253 30 view .LVU623
1254:Drivers/sx126x/radio/sx126x/radio.c ****     // Clear IRQ flag
1255:Drivers/sx126x/radio/sx126x/radio.c ****     const bool isIrqFired = IrqFired;
 2432              		.loc 1 1255 5 view .LVU624
 2433              		.loc 1 1255 16 is_stmt 0 view .LVU625
 2434 0000 584B     		ldr	r3, .L213
 2435 0002 1A78     		ldrb	r2, [r3]	@ zero_extendqisi2
 2436              	.LVL232:
1256:Drivers/sx126x/radio/sx126x/radio.c ****     IrqFired = false;
 2437              		.loc 1 1256 5 is_stmt 1 view .LVU626
 2438              		.loc 1 1256 14 is_stmt 0 view .LVU627
 2439 0004 0021     		movs	r1, #0
 2440 0006 1970     		strb	r1, [r3]
1257:Drivers/sx126x/radio/sx126x/radio.c ****     CRITICAL_SECTION_END( );
 2441              		.loc 1 1257 28 is_stmt 1 view .LVU628
1258:Drivers/sx126x/radio/sx126x/radio.c **** 
1259:Drivers/sx126x/radio/sx126x/radio.c ****     if( isIrqFired == true )
 2442              		.loc 1 1259 5 view .LVU629
 2443              		.loc 1 1259 7 is_stmt 0 view .LVU630
 2444 0008 02B9     		cbnz	r2, .L204
 2445 000a 7047     		bx	lr
 2446              	.L204:
1252:Drivers/sx126x/radio/sx126x/radio.c ****     CRITICAL_SECTION_BEGIN( );
 2447              		.loc 1 1252 1 view .LVU631
 2448 000c 30B5     		push	{r4, r5, lr}
 2449              	.LCFI36:
 2450              		.cfi_def_cfa_offset 12
 2451              		.cfi_offset 4, -12
ARM GAS  C:\Users\andywei\AppData\Local\Temp\ccCe1C2z.s 			page 74


 2452              		.cfi_offset 5, -8
 2453              		.cfi_offset 14, -4
 2454 000e 83B0     		sub	sp, sp, #12
 2455              	.LCFI37:
 2456              		.cfi_def_cfa_offset 24
 2457              	.LBB5:
1260:Drivers/sx126x/radio/sx126x/radio.c ****     {
1261:Drivers/sx126x/radio/sx126x/radio.c ****         uint16_t irqRegs = SX126xGetIrqStatus( );
 2458              		.loc 1 1261 9 is_stmt 1 view .LVU632
 2459              		.loc 1 1261 28 is_stmt 0 view .LVU633
 2460 0010 FFF7FEFF 		bl	SX126xGetIrqStatus
 2461              	.LVL233:
 2462              		.loc 1 1261 28 view .LVU634
 2463 0014 0446     		mov	r4, r0
 2464              	.LVL234:
1262:Drivers/sx126x/radio/sx126x/radio.c ****         SX126xClearIrqStatus( irqRegs );
 2465              		.loc 1 1262 9 is_stmt 1 view .LVU635
 2466 0016 FFF7FEFF 		bl	SX126xClearIrqStatus
 2467              	.LVL235:
1263:Drivers/sx126x/radio/sx126x/radio.c **** 
1264:Drivers/sx126x/radio/sx126x/radio.c ****         // Check if DIO1 pin is High. If it is the case revert IrqFired to true
1265:Drivers/sx126x/radio/sx126x/radio.c ****         CRITICAL_SECTION_BEGIN( );
 2468              		.loc 1 1265 34 view .LVU636
1266:Drivers/sx126x/radio/sx126x/radio.c ****         if( SX126xGetDio1PinState( ) == 1 )
 2469              		.loc 1 1266 9 view .LVU637
 2470              		.loc 1 1266 13 is_stmt 0 view .LVU638
 2471 001a FFF7FEFF 		bl	SX126xGetDio1PinState
 2472              	.LVL236:
 2473              		.loc 1 1266 11 view .LVU639
 2474 001e 0128     		cmp	r0, #1
 2475 0020 27D0     		beq	.L205
 2476              	.L189:
1267:Drivers/sx126x/radio/sx126x/radio.c ****         {
1268:Drivers/sx126x/radio/sx126x/radio.c ****             IrqFired = true;
1269:Drivers/sx126x/radio/sx126x/radio.c ****         }
1270:Drivers/sx126x/radio/sx126x/radio.c ****         CRITICAL_SECTION_END( );
 2477              		.loc 1 1270 32 is_stmt 1 view .LVU640
1271:Drivers/sx126x/radio/sx126x/radio.c **** 
1272:Drivers/sx126x/radio/sx126x/radio.c ****         if( ( irqRegs & IRQ_TX_DONE ) == IRQ_TX_DONE )
 2478              		.loc 1 1272 9 view .LVU641
 2479              		.loc 1 1272 11 is_stmt 0 view .LVU642
 2480 0022 14F0010F 		tst	r4, #1
 2481 0026 28D1     		bne	.L206
 2482              	.L190:
1273:Drivers/sx126x/radio/sx126x/radio.c ****         {
1274:Drivers/sx126x/radio/sx126x/radio.c ****             // TimerStop( &TxTimeoutTimer );
1275:Drivers/sx126x/radio/sx126x/radio.c ****             //!< Update operating mode state to a value lower than \ref MODE_STDBY_XOSC
1276:Drivers/sx126x/radio/sx126x/radio.c ****             SX126xSetOperatingMode( MODE_STDBY_RC );
1277:Drivers/sx126x/radio/sx126x/radio.c ****             if( ( RadioEvents != NULL ) && ( RadioEvents->TxDone != NULL ) )
1278:Drivers/sx126x/radio/sx126x/radio.c ****             {
1279:Drivers/sx126x/radio/sx126x/radio.c ****                 RadioEvents->TxDone( );
1280:Drivers/sx126x/radio/sx126x/radio.c ****             }
1281:Drivers/sx126x/radio/sx126x/radio.c ****         }
1282:Drivers/sx126x/radio/sx126x/radio.c **** 
1283:Drivers/sx126x/radio/sx126x/radio.c ****         if( ( irqRegs & IRQ_RX_DONE ) == IRQ_RX_DONE )
 2483              		.loc 1 1283 9 is_stmt 1 view .LVU643
 2484              		.loc 1 1283 11 is_stmt 0 view .LVU644
ARM GAS  C:\Users\andywei\AppData\Local\Temp\ccCe1C2z.s 			page 75


 2485 0028 14F0020F 		tst	r4, #2
 2486 002c 0CD0     		beq	.L191
1284:Drivers/sx126x/radio/sx126x/radio.c ****         {
1285:Drivers/sx126x/radio/sx126x/radio.c ****             // TimerStop( &RxTimeoutTimer );
1286:Drivers/sx126x/radio/sx126x/radio.c **** 
1287:Drivers/sx126x/radio/sx126x/radio.c ****             if( ( irqRegs & IRQ_CRC_ERROR ) == IRQ_CRC_ERROR )
 2487              		.loc 1 1287 13 is_stmt 1 view .LVU645
 2488              		.loc 1 1287 15 is_stmt 0 view .LVU646
 2489 002e 14F0400F 		tst	r4, #64
 2490 0032 32D0     		beq	.L192
1288:Drivers/sx126x/radio/sx126x/radio.c ****             {
1289:Drivers/sx126x/radio/sx126x/radio.c ****                 if( RxContinuous == false )
 2491              		.loc 1 1289 17 is_stmt 1 view .LVU647
 2492              		.loc 1 1289 34 is_stmt 0 view .LVU648
 2493 0034 4C4B     		ldr	r3, .L213+4
 2494 0036 1B78     		ldrb	r3, [r3]	@ zero_extendqisi2
 2495              		.loc 1 1289 19 view .LVU649
 2496 0038 002B     		cmp	r3, #0
 2497 003a 2AD0     		beq	.L207
 2498              	.L193:
1290:Drivers/sx126x/radio/sx126x/radio.c ****                 {
1291:Drivers/sx126x/radio/sx126x/radio.c ****                     //!< Update operating mode state to a value lower than \ref MODE_STDBY_XOSC
1292:Drivers/sx126x/radio/sx126x/radio.c ****                     SX126xSetOperatingMode( MODE_STDBY_RC );
1293:Drivers/sx126x/radio/sx126x/radio.c ****                 }
1294:Drivers/sx126x/radio/sx126x/radio.c ****                 if( ( RadioEvents != NULL ) && ( RadioEvents->RxError ) )
 2499              		.loc 1 1294 17 is_stmt 1 view .LVU650
 2500              		.loc 1 1294 35 is_stmt 0 view .LVU651
 2501 003c 4B4B     		ldr	r3, .L213+8
 2502 003e 1B68     		ldr	r3, [r3]
 2503              		.loc 1 1294 19 view .LVU652
 2504 0040 13B1     		cbz	r3, .L191
 2505              		.loc 1 1294 61 discriminator 1 view .LVU653
 2506 0042 1B69     		ldr	r3, [r3, #16]
 2507              		.loc 1 1294 45 discriminator 1 view .LVU654
 2508 0044 03B1     		cbz	r3, .L191
1295:Drivers/sx126x/radio/sx126x/radio.c ****                 {
1296:Drivers/sx126x/radio/sx126x/radio.c ****                     RadioEvents->RxError( );
 2509              		.loc 1 1296 21 is_stmt 1 view .LVU655
 2510 0046 9847     		blx	r3
 2511              	.LVL237:
 2512              	.L191:
1297:Drivers/sx126x/radio/sx126x/radio.c ****                 }
1298:Drivers/sx126x/radio/sx126x/radio.c ****             }
1299:Drivers/sx126x/radio/sx126x/radio.c ****             else
1300:Drivers/sx126x/radio/sx126x/radio.c ****             {
1301:Drivers/sx126x/radio/sx126x/radio.c ****                 uint8_t size;
1302:Drivers/sx126x/radio/sx126x/radio.c **** 
1303:Drivers/sx126x/radio/sx126x/radio.c ****                 if( RxContinuous == false )
1304:Drivers/sx126x/radio/sx126x/radio.c ****                 {
1305:Drivers/sx126x/radio/sx126x/radio.c ****                     //!< Update operating mode state to a value lower than \ref MODE_STDBY_XOSC
1306:Drivers/sx126x/radio/sx126x/radio.c ****                     SX126xSetOperatingMode( MODE_STDBY_RC );
1307:Drivers/sx126x/radio/sx126x/radio.c **** 
1308:Drivers/sx126x/radio/sx126x/radio.c ****                     // WORKAROUND - Implicit Header Mode Timeout Behavior, see DS_SX1261-2_V1.2 dat
1309:Drivers/sx126x/radio/sx126x/radio.c ****                     SX126xWriteRegister( REG_RTC_CTRL, 0x00 );
1310:Drivers/sx126x/radio/sx126x/radio.c ****                     SX126xWriteRegister( REG_EVT_CLR, SX126xReadRegister( REG_EVT_CLR ) | ( 1 << 1 
1311:Drivers/sx126x/radio/sx126x/radio.c ****                     // WORKAROUND END
1312:Drivers/sx126x/radio/sx126x/radio.c ****                 }
ARM GAS  C:\Users\andywei\AppData\Local\Temp\ccCe1C2z.s 			page 76


1313:Drivers/sx126x/radio/sx126x/radio.c ****                 SX126xGetPayload( RadioRxPayload, &size , 255 );
1314:Drivers/sx126x/radio/sx126x/radio.c ****                 SX126xGetPacketStatus( &RadioPktStatus );
1315:Drivers/sx126x/radio/sx126x/radio.c ****                 if( ( RadioEvents != NULL ) && ( RadioEvents->RxDone != NULL ) )
1316:Drivers/sx126x/radio/sx126x/radio.c ****                 {
1317:Drivers/sx126x/radio/sx126x/radio.c ****                     RadioEvents->RxDone( RadioRxPayload, size, RadioPktStatus.Params.LoRa.RssiPkt, 
1318:Drivers/sx126x/radio/sx126x/radio.c ****                 }
1319:Drivers/sx126x/radio/sx126x/radio.c ****             }
1320:Drivers/sx126x/radio/sx126x/radio.c ****         }
1321:Drivers/sx126x/radio/sx126x/radio.c **** 
1322:Drivers/sx126x/radio/sx126x/radio.c ****         if( ( irqRegs & IRQ_CAD_DONE ) == IRQ_CAD_DONE )
 2513              		.loc 1 1322 9 view .LVU656
 2514              		.loc 1 1322 11 is_stmt 0 view .LVU657
 2515 0048 14F0800F 		tst	r4, #128
 2516 004c 56D1     		bne	.L208
 2517              	.L196:
1323:Drivers/sx126x/radio/sx126x/radio.c ****         {
1324:Drivers/sx126x/radio/sx126x/radio.c ****             //!< Update operating mode state to a value lower than \ref MODE_STDBY_XOSC
1325:Drivers/sx126x/radio/sx126x/radio.c ****             SX126xSetOperatingMode( MODE_STDBY_RC );
1326:Drivers/sx126x/radio/sx126x/radio.c ****             if( ( RadioEvents != NULL ) && ( RadioEvents->CadDone != NULL ) )
1327:Drivers/sx126x/radio/sx126x/radio.c ****             {
1328:Drivers/sx126x/radio/sx126x/radio.c ****                 RadioEvents->CadDone( ( ( irqRegs & IRQ_CAD_ACTIVITY_DETECTED ) == IRQ_CAD_ACTIVITY
1329:Drivers/sx126x/radio/sx126x/radio.c ****             }
1330:Drivers/sx126x/radio/sx126x/radio.c ****         }
1331:Drivers/sx126x/radio/sx126x/radio.c **** 
1332:Drivers/sx126x/radio/sx126x/radio.c ****         if( ( irqRegs & IRQ_RX_TX_TIMEOUT ) == IRQ_RX_TX_TIMEOUT )
 2518              		.loc 1 1332 9 is_stmt 1 view .LVU658
 2519              		.loc 1 1332 11 is_stmt 0 view .LVU659
 2520 004e 14F4007F 		tst	r4, #512
 2521 0052 61D1     		bne	.L209
 2522              	.L197:
1333:Drivers/sx126x/radio/sx126x/radio.c ****         {
1334:Drivers/sx126x/radio/sx126x/radio.c ****             if( SX126xGetOperatingMode( ) == MODE_TX )
1335:Drivers/sx126x/radio/sx126x/radio.c ****             {
1336:Drivers/sx126x/radio/sx126x/radio.c ****                 // TimerStop( &TxTimeoutTimer );
